(cnumpy.core.multiarray
_reconstruct
p0
(cnumpy
ndarray
p1
(I0
tp2
S'b'
p3
tp4
Rp5
(I1
(I10
I3
I1
tp6
cnumpy
dtype
p7
(S'f8'
p8
I0
I1
tp9
Rp10
(I3
S'<'
p11
NNNI-1
I-1
I0
tp12
bI00
S'\x00\x00\x00\x00\x00\x00\x00\x00\x00\x00\x00\x00\x00\x00\x00\x00\x00\x00\x00\x00\x00\x00\x00\x00\x00\x00\x00\x00\x00\x00\x00\x00\x00\x00\x00\x00\x00\x00\x00\x00\x00\x00\x00\x00\x00\x00\x00\x00\x00\x00\x00\x00\x00\x00\x00\x00\x00\x00\x00\x00\x00\x00\x00\x00\x00\x00\x00\x00\x00\x00\x00\x00\x00\x00\x00\x00\x00\x00\x00\x00\x00\x00\x00\x00\x00\x00\x00\x00\x00\x00\x00\x00\x00\x00\x00\x00\x00\x00\x00\x00\x00\x00\x00\x00\x00\x00\x00\x00\x00\x00\x00\x00\x00\x00\x00\x00\x00\x00\x00\x00\x00\x00\x00\x00\x00\x00\x00\x00\x00\x00\x00\x00\x00\x00\x00\x00\x00\x00\x00\x00\x00\x00\x00\x00\x00\x00\x00\x00\x00\x00\x00\x00\x00\x00\x00\x00\x00\x00\x00\x00\x00\x00\x00\x00\x00\x00\x00\x00\x00\x00\x00\x00\x00\x00\x00\x00\x00\x00\x00\x00\x00\x00\x00\x00\x00\x00\x00\x00\x00\x00\x00\x00\x00\x00\x00\x00\x00\x00\x00\x00\x00\x00\x00\x00\x00\x00\x00\x00\x00\x00\x00\x00\x00\x00\x00\x00\x00\x00\x00\x00\x00\x00\x00\x00\x00\x00\x00\x00\x00\x00\x00\x00\x00\x00\x00\x00\x00\x00\x00\x00'
p13
tp14
bg0
(g1
(I0
tp15
g3
tp16
Rp17
(I1
(I10
I3
I1
tp18
g10
I00
S'\x00\x00\x00\x00\x00\x00\x00\x00\x00\x00\x00\x00\x00\x00\x00\x00\x00\x00\x00\x00\x00\x00\x00\x00\x00\x00\x00\x00\x00\x00\x00\x00\x00\x00\x00\x00\x00\x00\x00\x00\x00\x00\x00\x00\x00\x00\x00\x00\x00\x00\x00\x00\x00\x00\x00\x00\x00\x00\x00\x00\x00\x00\x00\x00\x00\x00\x00\x00\x00\x00\x00\x00\x00\x00\x00\x00\x00\x00\x00\x00\x00\x00\x00\x00\x00\x00\x00\x00\x00\x00\x00\x00\x00\x00\x00\x00\x00\x00\x00\x00\x00\x00\x00\x00\x00\x00\x00\x00\x00\x00\x00\x00\x00\x00\x00\x00\x00\x00\x00\x00\x00\x00\x00\x00\x00\x00\x00\x00\x00\x00\x00\x00\x00\x00\x00\x00\x00\x00\x00\x00\x00\x00\x00\x00\x00\x00\x00\x00\x00\x00\x00\x00\x00\x00\x00\x00\x00\x00\x00\x00\x00\x00\x00\x00\x00\x00\x00\x00\x00\x00\x00\x00\x00\x00\x00\x00\x00\x00\x00\x00\x00\x00\x00\x00\x00\x00\x00\x00\x00\x00\x00\x00\x00\x00\x00\x00\x00\x00\x00\x00\x00\x00\x00\x00\x00\x00\x00\x00\x00\x00\x00\x00\x00\x00\x00\x00\x00\x00\x00\x00\x00\x00\x00\x00\x00\x00\x00\x00\x00\x00\x00\x00\x00\x00\x00\x00\x00\x00\x00\x00'
p19
tp20
bg0
(g1
(I0
tp21
g3
tp22
Rp23
(I1
(I1
tp24
g10
I00
S'L\xba\x92{\xdeHp\xc0'
p25
tp26
bg0
(g1
(I0
tp27
g3
tp28
Rp29
(I1
(I1
tp30
g10
I00
S'\x00\x00\x00\x86\x1cU_@'
p31
tp32
b(lp33
(lp34
F-1896.0
aF-1896.0
aF-1896.0
aF-1614.0
aF-1614.0
aF-1614.0
aF-1500.2624720520369
aF-854.0
aF-854.0
aF-854.0
aF-767.0158910283901
aF-735.7973786051477
aF-733.0
aF-733.0
aF-681.7871668761704
aF-603.0267595227648
aF-600.7773516519466
aF-600.2617182365578
aF-597.2932488120375
aF-591.9413599447402
aF-557.5670838386122
aF-547.8105476058762
aF-542.6634472723715
aF-537.3451457117759
aF-532.7559755231672
aF-518.8118258929692
aF-500.22749566234114
aF-485.7644291814295
aF-472.69112151205974
aF-462.63112438296884
aF-453.0041794975855
aF-447.8763810267643
aF-434.4635535045062
aF-431.43123829236424
aF-413.4105744233229
aF-398.36664949255555
aF-394.0178392908658
aF-387.69512882130533
aF-380.5559688438695
aF-372.4906202555609
aF-368.48844860464504
aF-363.82137176163303
aF-356.9054325210259
aF-351.6970558262013
aF-351.5865326036549
aF-349.87721403332364
aF-348.78260306747217
aF-341.9648810606252
aF-338.47823137021754
aF-336.99824476821834
aF-334.69352261616154
aF-332.27961457402466
aF-317.5892888031532
aF-307.5123740731417
aF-300.6148974390591
aF-298.64317969585346
aF-298.0979011043054
aF-297.8237990903359
aF-297.56080551977135
aF-296.83790949017214
aF-296.58582288441875
aF-291.8537262380839
aF-286.6771850090591
aF-284.11565309798186
aF-283.31536804486353
aF-280.7366606245843
aF-279.3180562545596
aF-276.57287265860265
aF-275.62606649518233
aF-275.18382910800176
aF-274.6289066992467
aF-274.0570131597259
aF-273.9078595219148
aF-273.3379328135859
aF-272.85180070644503
aF-272.1822857965846
aF-271.9218808734149
aF-271.895846449427
aF-270.61211150366165
aF-270.31282041331036
aF-270.27593919240195
aF-270.23283187764036
aF-269.98443959108704
aF-269.7430368692225
aF-268.99658044984795
aF-268.6266452526617
aF-268.3664216352545
aF-267.34863119684434
aF-266.94327478936225
aF-266.6749676137215
aF-266.44890605581764
aF-266.4117848610003
aF-265.85165554076843
aF-265.20320491012853
aF-265.1177651054047
aF-264.91547232493235
aF-264.28218980952744
aF-264.12930070787394
aF-263.9857765415139
aF-263.7591581570434
aF-262.9554048062108
aF-262.89263873643614
aF-262.88582946908946
aF-262.7455144090519
aF-262.7049425653404
aF-262.69584593791257
aF-262.5833587401529
aF-262.51826239026366
aF-262.5012621171313
aF-262.08674132118205
aF-261.93491043123424
aF-261.79460973652965
aF-261.79460973652965
aF-261.7774525979631
aF-261.7766885682946
aF-261.6996330498807
aF-261.6966801758999
aF-261.64582620688196
aF-261.53089092234677
aF-261.52869358884044
aF-261.4969696316002
aF-261.48915474812
aF-261.3056715540801
aF-261.2956892189302
aF-261.21773457497943
aF-261.1725178925424
aF-261.16455219687157
aF-261.1072199990354
aF-261.10317121567243
aF-261.08833122937415
aF-261.0371587898484
aF-260.9079031507536
aF-260.87725457539716
aF-260.87037778263146
aF-260.832435519184
aF-260.82514989008143
aF-260.82514989008155
aF-260.81650207671976
aF-260.81529957789087
aF-260.8151424214923
aF-260.8150624783322
aF-260.807087424327
aF-260.80056980449234
aF-260.79629663132647
aF-260.78949898560643
aF-260.78949898560643
aF-260.78796317577235
aF-260.78637964166677
aF-260.78007297299513
aF-260.7747980211472
aF-260.7747980211472
aF-260.77472684802535
aF-260.76178947369505
aF-260.7615734869054
aF-260.75813807650206
aF-260.7566719507154
aF-260.75664977698983
aF-260.73159005850107
aF-260.72258575049875
aF-260.7182274222971
aF-260.71559618745613
aF-260.71559618745613
aF-260.6994729786941
aF-260.6994729786941
aF-260.6944620171416
aF-260.6944620171416
aF-260.6914173759715
aF-260.69119914470156
aF-260.6911574521065
aF-260.6911574521065
aF-260.6789261854737
aF-260.67578059669427
aF-260.6756521507834
aF-260.6752347172155
aF-260.6617731906591
aF-260.6617731906591
aF-260.6606045932701
aF-260.64814130067015
aF-260.64745274561074
aF-260.6449491112279
aF-260.6416085382551
aF-260.6416085382551
aF-260.63428816133717
aF-260.63424430146114
aF-260.63424430146114
aF-260.6327116289316
aF-260.6327116289316
aF-260.6302814771106
aF-260.6302814771106
aF-260.6302814771106
aF-260.6302814771106
aF-260.6291850197968
aF-260.62882713798746
aF-260.6286756751934
aF-260.61633972702447
aF-260.61633972702447
aF-260.61599291032655
aF-260.61599291032655
aF-260.61599291032655
aF-260.61599291032655
aF-260.6132467062362
aF-260.6096922722615
aF-260.6096806915081
aF-260.6096806915081
aF-260.6088193438754
aF-260.60786346801586
aF-260.60786346801586
aF-260.60786346801586
aF-260.60596615600673
aF-260.60585060991474
aF-260.60585060991474
aF-260.60585060991474
aF-260.60585060991474
aF-260.60585060991474
aF-260.59906501887275
aF-260.59906501887275
aF-260.5990650188731
aF-260.59793035169577
aF-260.5979303516958
aF-260.5979303516958
aF-260.5979303516958
aF-260.5979303516958
aF-260.5907077492869
aF-260.5907077492869
aF-260.5907077492869
aF-260.5843660353649
aF-260.5843660353649
aF-260.5843660353649
aF-260.5839195202738
aF-260.5839195202738
aF-260.5839195202738
aF-260.58336004123703
aF-260.58336004123703
aF-260.58336004123703
aF-260.5822029873835
aF-260.58220298738337
aF-260.5822029873835
aF-260.58220298738354
aF-260.58077715666593
aF-260.580548072832
aF-260.580548072832
aF-260.5802228256178
aF-260.57518801754
aF-260.57513874548386
aF-260.57513874548386
aF-260.57470751290913
aF-260.5721267046286
aF-260.5721267046287
aF-260.5721267046287
aF-260.571327800394
aF-260.5713200867001
aF-260.5676702001491
aF-260.5676702001491
aF-260.5662127425818
aF-260.56621274258185
aF-260.56621274258185
aF-260.5662127425818
aF-260.5662127425818
aF-260.56402814772144
aF-260.56402814772105
aF-260.5631060363289
aF-260.56310603632915
aF-260.5625502892227
aF-260.5625502892221
aF-260.5625502892227
aF-260.5625502892227
aF-260.5625502892227
aF-260.5625502892227
aF-260.5625502892227
aF-260.56182742884084
aF-260.56164525668066
aF-260.5600846930677
aF-260.5600846930677
aF-260.5600263152212
aF-260.5592755839872
aF-260.5592755839872
aF-260.5588104033266
aF-260.55760504658485
aF-260.55589988897026
aF-260.5553200268193
aF-260.55531864942367
aF-260.5552811257867
aF-260.55474850177484
aF-260.5546549389524
aF-260.5546549389524
aF-260.55464829667176
aF-260.55453579905134
aF-260.554492768451
aF-260.5544632640728
aF-260.55445266242816
aF-260.554410092133
aF-260.55438844759834
aF-260.5543759491483
aF-260.55432583092767
aF-260.5543256911599
aF-260.55431912541076
aF-260.5543170672942
aF-260.5543170672942
aF-260.5543170672943
aF-260.55431706729416
aF-260.5543170672943
aF-260.5543170672943
aF-260.5543170672943
aF-260.5543170672943
aF-260.5543170672943
aF-260.5543170672943
aF-260.5543170672943
aF-260.5543170672943
aF-260.5543170672943
aF-260.5543170672943
aF-260.5543170672943
aF-260.5543170672943
aF-260.5543170672943
aatp35
.