(cnumpy.core.multiarray
_reconstruct
p0
(cnumpy
ndarray
p1
(I0
tp2
S'b'
p3
tp4
Rp5
(I1
(I1
I3
I10
tp6
cnumpy
dtype
p7
(S'f8'
p8
I0
I1
tp9
Rp10
(I3
S'<'
p11
NNNI-1
I-1
I0
tp12
bI00
S'\x00\x00\x00\x00\x00\x00\x00\x00\x00\x00\x00\x00\x00\x00\x00\x00\x00\x00\x00\x00\x00\x00\x00\x00\x00\x00\x00\x00\x00\x00\x00\x00\x00\x00\x00\x00\x00\x00\x00\x00\x00\x00\x00\x00\x00\x00\x00\x00\x00\x00\x00\x00\x00\x00\x00\x00\x00\x00\x00\x00\x00\x00\x00\x00\x00\x00\x00\x00\x00\x00\x00\x00\x00\x00\x00\x00\x00\x00\x00\x00\x00\x00\x00\x00\x00\x00\x00\x00\x00\x00\x00\x00\x00\x00\x00\x00\x00\x00\x00\x00\x00\x00\x00\x00\x00\x00\x00\x00\x00\x00\x00\x00\x00\x00\x00\x00\x00\x00\x00\x00\x00\x00\x00\x00\x00\x00\x00\x00\x00\x00\x00\x00\x00\x00\x00\x00\x00\x00\x00\x00\x00\x00\x00\x00\x00\x00\x00\x00\x00\x00\x00\x00\x00\x00\x00\x00\x00\x00\x00\x00\x00\x00\x00\x00\x00\x00\x00\x00\x00\x00\x00\x00\x00\x00\x00\x00\x00\x00\x00\x00\x00\x00\x00\x00\x00\x00\x00\x00\x00\x00\x00\x00\x00\x00\x00\x00\x00\x00\x00\x00\x00\x00\x00\x00\x00\x00\x00\x00\x00\x00\x00\x00\x00\x00\x00\x00\x00\x00\x00\x00\x00\x00\x00\x00\x00\x00\x00\x00\x00\x00\x00\x00\x00\x00\x00\x00\x00\x00\x00\x00'
p13
tp14
bg0
(g1
(I0
tp15
g3
tp16
Rp17
(I1
(I1
I3
I10
tp18
g10
I00
S'\x00\x00\x00\x00\x00\x00\x00\x00\x00\x00\x00\x00\x00\x00\x00\x00\x00\x00\x00\x00\x00\x00\x00\x00\x00\x00\x00\x00\x00\x00\x00\x00\x00\x00\x00\x00\x00\x00\x00\x00\x00\x00\x00\x00\x00\x00\x00\x00\x00\x00\x00\x00\x00\x00\x00\x00\x00\x00\x00\x00\x00\x00\x00\x00\x00\x00\x00\x00\x00\x00\x00\x00\x00\x00\x00\x00\x00\x00\x00\x00\x00\x00\x00\x00\x00\x00\x00\x00\x00\x00\x00\x00\x00\x00\x00\x00\x00\x00\x00\x00\x00\x00\x00\x00\x00\x00\x00\x00\x00\x00\x00\x00\x00\x00\x00\x00\x00\x00\x00\x00\x00\x00\x00\x00\x00\x00\x00\x00\x00\x00\x00\x00\x00\x00\x00\x00\x00\x00\x00\x00\x00\x00\x00\x00\x00\x00\x00\x00\x00\x00\x00\x00\x00\x00\x00\x00\x00\x00\x00\x00\x00\x00\x00\x00\x00\x00\x00\x00\x00\x00\x00\x00\x00\x00\x00\x00\x00\x00\x00\x00\x00\x00\x00\x00\x00\x00\x00\x00\x00\x00\x00\x00\x00\x00\x00\x00\x00\x00\x00\x00\x00\x00\x00\x00\x00\x00\x00\x00\x00\x00\x00\x00\x00\x00\x00\x00\x00\x00\x00\x00\x00\x00\x00\x00\x00\x00\x00\x00\x00\x00\x00\x00\x00\x00\x00\x00\x00\x00\x00\x00'
p19
tp20
bg0
(g1
(I0
tp21
g3
tp22
Rp23
(I1
(I10
tp24
g10
I00
S'\x00\x00\x00\x00\x00\x00\x00\x00\xb7<\xd7\xa3!\x15e\xc0\xb8\xbf\xc5\x04\xc1\xb6{\xc0\xc5z\xf3W\xe2\xbfg\xc0\x99\xf1\x06:vbo\xc0\x8ad*\xae\xf8"o\xc0t\xe8\r\x16\x1b\xe2w\xc0{\x02\x9b\x17\x06qt\xc0\xde$\x96\x17\xb3(k\xc0[\xf7]\x9c\xb8\x8a}\xc0'
p25
tp26
bg0
(g1
(I0
tp27
g3
tp28
Rp29
(I1
(I10
tp30
g10
I00
S'\x00\x00\x00\x00\x00\x00\x00\x00\x00\x00\x80\rZ\xfd\x85@\x00\x00\x80\xc7\r9f@\x00\x00\xc0\xc1Q\xc4v@\x00\x00\x00%>\xfcb@\x00\x00\x80z\n\xd8j@\x00\x00\xd0\x989\x0c\x90@\x00\x00\x00:Y\xbdm@\x00\x00@\xeb\xfd\xc2q@\x00\x00\x00\x98\xf9\x14h@'
p31
tp32
b(lp33
(lp34
F-1513.0
aF-1513.0
aF-1513.0
aF-1457.0
aF-1457.0
aF-1457.0
aF-1391.0
aF-1391.0
aF-1391.0
aF-1277.4862483204292
aF-859.2294308342704
aF-859.2216954471327
aF-859.2216954471327
aF-766.52401939461
aF-651.0958782410424
aF-637.6202390195629
aF-591.5641300337762
aF-590.3466005961653
aF-572.8438705215697
aF-562.356027751441
aF-560.8380900009578
aF-546.9465766408002
aF-546.8047994159239
aF-544.3581840068293
aF-543.5319031873609
aF-530.3868448927208
aF-518.1225701570161
aF-511.07378940212004
aF-504.8114408435685
aF-501.202216521318
aF-485.97693943970853
aF-471.057488708705
aF-459.5264137347054
aF-441.758382874791
aF-430.90212683310534
aF-425.27159437132264
aF-417.32317647838005
aF-413.67810714863907
aF-406.1181166675898
aF-404.267428554101
aF-397.71679457712236
aF-390.31860384316195
aF-382.40988957956205
aF-368.8060650226799
aF-359.8519507507433
aF-354.93813816668734
aF-349.43527660998143
aF-347.014309769455
aF-345.3900696850761
aF-342.5845049456856
aF-330.7683028053555
aF-312.50600037324193
aF-306.7483759253349
aF-303.7011422666605
aF-300.2283411762017
aF-299.6298072551284
aF-294.90896736404017
aF-290.0854290891262
aF-286.8911398355347
aF-284.9357292944529
aF-280.43536757412414
aF-275.8083097547543
aF-275.6746062110335
aF-273.5133440699563
aF-271.904458957702
aF-270.18619485873654
aF-267.9064507528353
aF-265.14463089936396
aF-264.0903054004503
aF-262.43585467429665
aF-261.9996754145558
aF-259.7688738016156
aF-259.4737314139472
aF-255.91755229226482
aF-253.58470010502666
aF-251.5552139221391
aF-250.4654465718449
aF-247.0216111991669
aF-245.77414402313167
aF-245.1740252996754
aF-244.56769101354388
aF-239.17674656476635
aF-238.40018368066188
aF-237.72351884241158
aF-235.80135650981148
aF-231.75868820404952
aF-230.77424121124614
aF-230.26831995955874
aF-229.76931601131736
aF-228.1681606442506
aF-227.10925004567466
aF-226.69827984316404
aF-226.12856349949325
aF-224.59653997239394
aF-224.1990200416745
aF-222.222208780587
aF-220.16352655783265
aF-217.10976365158956
aF-216.45176667814025
aF-215.3816915099767
aF-213.55975824790096
aF-213.07378959402902
aF-210.38449807123746
aF-209.54796403503624
aF-208.43869517526846
aF-208.2608825598167
aF-206.33544984346887
aF-205.7113111972548
aF-204.6886344386187
aF-204.32494342709595
aF-204.2040219700441
aF-203.16880820525
aF-201.18167741450787
aF-201.00462032119887
aF-200.06211707330883
aF-199.80204840162958
aF-198.06893941101603
aF-197.34551219256585
aF-197.1731093595709
aF-196.72396549806552
aF-196.65366070738366
aF-196.25471925625203
aF-196.1595459845114
aF-195.82389264111853
aF-195.42795386170093
aF-195.3456554051652
aF-195.22633163159773
aF-194.93086151452854
aF-194.62968537408423
aF-194.35168234354842
aF-194.17935351514149
aF-193.72643548863707
aF-193.29235913443574
aF-193.13981753524678
aF-192.52246641677027
aF-191.6397499125233
aF-190.88269697353576
aF-190.57301874053184
aF-190.33110470601778
aF-190.10952744687924
aF-189.90738969877358
aF-189.79031234719048
aF-189.6480639614337
aF-188.9949900555237
aF-188.92342474854667
aF-188.653248850858
aF-188.49608026121737
aF-187.92194793233958
aF-187.50526127560389
aF-185.85985295053774
aF-185.5654584673477
aF-184.91340783981272
aF-184.73105141034176
aF-184.71100975610102
aF-184.20363515245973
aF-184.1247659575754
aF-184.02608788522377
aF-183.95089704112843
aF-183.62978611347089
aF-183.5635596302446
aF-182.9322394293255
aF-182.77650293483353
aF-182.64272239385446
aF-182.42090636868613
aF-182.34297242206353
aF-182.17589412001007
aF-181.92288464528932
aF-181.7656182371319
aF-181.726149444693
aF-181.66733272493573
aF-181.55057250573637
aF-181.47281016963717
aF-181.2902590111116
aF-181.11625672013284
aF-180.98290097417785
aF-180.62595623721123
aF-180.54663328334297
aF-180.54377304991814
aF-179.95461350730426
aF-179.6947483194583
aF-179.3071761218721
aF-179.23845340397352
aF-179.213010594091
aF-179.0608095440667
aF-178.28932094484367
aF-178.27093705206414
aF-178.18853819262299
aF-178.18853819262299
aF-177.99555207277936
aF-177.968030777832
aF-177.85293300403168
aF-177.8126062494205
aF-177.80593312941264
aF-177.75009944712613
aF-177.75009944712613
aF-177.73297159087664
aF-177.73255596697518
aF-177.73137029821217
aF-177.73137029821217
aF-177.7242860549207
aF-177.6331083083944
aF-177.58091276931114
aF-177.57992934493376
aF-177.55392159586597
aF-177.50327368600713
aF-177.46447284769562
aF-177.1106170622583
aF-177.07489037585353
aF-177.063280822972
aF-177.063280822972
aF-176.98793661114308
aF-176.9637637497308
aF-176.83151163102784
aF-176.6341628046331
aF-176.55000372988022
aF-176.48456952945867
aF-176.29993920810088
aF-176.15437997435214
aF-176.04366632113974
aF-175.78075306830368
aF-175.7093952729414
aF-175.5949594631017
aF-175.4520231235196
aF-175.4036687608311
aF-175.34447575199604
aF-175.24854227770714
aF-175.20125481156367
aF-175.19846851037616
aF-174.86446779686048
aF-174.86211417093833
aF-174.84472535515908
aF-174.75143669795716
aF-174.62126878936888
aF-174.53259925680175
aF-174.53259925680175
aF-174.50538251648
aF-174.50538251648
aF-174.11211910740286
aF-174.11211910740286
aF-174.08781251066
aF-174.08781251066
aF-174.08781251066
aF-173.7826954903971
aF-173.7826954903971
aF-173.741099836361
aF-173.7398001144436
aF-173.68718458116632
aF-173.68718458116632
aF-173.65799421328987
aF-173.64221952523357
aF-173.6345903090784
aF-173.5998248337663
aF-173.48238336897796
aF-173.48238336897796
aF-173.41378308843264
aF-173.3920183933987
aF-173.3920183933987
aF-173.3640435250409
aF-173.3640435250409
aF-173.35217195786424
aF-173.34722222397352
aF-173.33839138665678
aF-173.31952723772716
aF-173.31952723772716
aF-173.31667792235768
aF-173.3152456916549
aF-173.3152456916549
aF-173.3152456916549
aF-173.298132835637
aF-173.28905101218595
aF-173.28905101218595
aF-173.210914569481
aF-173.06706676215973
aF-173.02178840542965
aF-172.8011573359205
aF-172.8011573359205
aF-172.7550464171667
aF-172.6782288986372
aF-172.6294918958551
aF-172.58945224092463
aF-172.57108649041723
aF-172.5623547748963
aF-172.55982405509906
aF-172.3915269796868
aF-172.3421971419169
aF-172.19187080395872
aF-172.15164549934596
aF-172.15164549934596
aF-172.1171379735518
aF-172.11160441946882
aF-172.11160441946882
aF-172.05621122731364
aF-171.99367977199495
aF-171.96476002657806
aF-171.96476002657806
aF-171.932293033349
aF-171.92797615942513
aF-171.925494029022
aF-171.80818952521082
aF-171.73794349038644
aF-171.72604972799482
aF-171.6762138775238
aF-171.53128064193234
aF-171.51441539795835
aF-171.42127813823564
aF-171.23478645239555
aF-171.13212372618122
aF-171.08090126940562
aF-171.01634504096188
aF-171.01634504096188
aF-171.0139408152544
aF-170.96687088256553
aF-170.9464320823875
aF-170.94360931425268
aF-170.94353229142217
aF-170.94353229142217
aF-170.93399289439185
aF-170.93399289439185
aF-170.93399289439185
aF-170.92544816812574
aF-170.92544816812574
aF-170.91494143309825
aF-170.91494143309825
aF-170.88505639966874
aF-170.83130869726077
aF-170.82939596086186
aF-170.82939596086186
aF-170.82939596086186
aF-170.79976384133343
aF-170.79976384133343
aF-170.79893463751625
aF-170.79687549653298
aF-170.78705108680631
aF-170.73772224519143
aF-170.73033708829846
aF-170.73033708829846
aF-170.70991658885825
aF-170.6417641193528
aF-170.62935207192254
aF-170.62901485238567
aF-170.5745836521287
aF-170.55864859521824
aF-170.49162079610113
aF-170.46059637684496
aF-170.43689779843783
aF-170.40477406373827
aF-170.39535015423087
aF-170.3590203792234
aF-170.31603234319087
aF-170.31603234319087
aF-170.27210268491186
aF-170.2657738762668
aF-170.2657738762668
aF-170.2657738762668
aF-170.26471654985173
aF-170.2593988955401
aF-170.25909651937633
aF-170.25737833359696
aF-170.25737833359696
aF-170.25737833359696
aF-170.25182128880363
aF-170.25182128880363
aF-170.2424860396954
aF-170.2424860396954
aF-170.23646077031907
aF-170.23550881924191
aF-170.21831257798235
aF-170.15308565857492
aF-170.15308565857492
aF-170.15308565857492
aF-170.1529497931758
aF-170.07712742185944
aF-170.06717828410473
aF-170.06304088086515
aF-170.06304088086515
aF-170.06304088086515
aF-170.0045353351549
aF-170.00332527269492
aF-169.99202220144915
aF-169.9862534484053
aF-169.9862534484053
aF-169.9862534484053
aF-169.9862534484053
aF-169.973879155576
aF-169.9553777118893
aF-169.9553777118893
aF-169.84271950203447
aF-169.84271950203447
aF-169.83812072165313
aF-169.8371093293378
aF-169.83573924740753
aF-169.8349933003983
aF-169.82204342779679
aF-169.82204342779679
aF-169.81633129668077
aF-169.77889865862988
aF-169.77695703258192
aF-169.7734302841812
aF-169.7734302841812
aF-169.76245774262154
aF-169.74581454677974
aF-169.74581454677974
aF-169.74006565556687
aF-169.74006565556687
aF-169.74006565556687
aF-169.72625454198658
aF-169.72625454198658
aF-169.7262138205562
aF-169.72599369717352
aF-169.72599369717352
aF-169.72257998288183
aF-169.72257998288183
aF-169.7208770347981
aF-169.71892186679204
aF-169.71892186679204
aF-169.71781456086083
aF-169.70338568939212
aF-169.70338568939212
aF-169.7000849520201
aF-169.69940865490955
aF-169.66255244510464
aF-169.66255244510464
aF-169.65320691533177
aF-169.65320691533177
aF-169.65320691533177
aF-169.65320691533177
aF-169.64176030106503
aF-169.64176030106503
aF-169.64176030106503
aF-169.64176030106503
aF-169.64176030106503
aF-169.64176030106503
aF-169.6296423932284
aF-169.628706987277
aF-169.628706987277
aF-169.628706987277
aF-169.60418938824424
aF-169.57982544225632
aF-169.57982544225632
aF-169.57756899085513
aF-169.57756899085513
aF-169.5775123006204
aF-169.5775123006204
aF-169.57643389328464
aF-169.57602338246795
aF-169.5739060848786
aF-169.5739060848786
aF-169.53698457444904
aF-169.51312239204535
aF-169.51312239204535
aF-169.48282068050497
aF-169.44805524131243
aF-169.44805524131243
aF-169.44681678246673
aF-169.44681678246673
aF-169.44681678246673
aF-169.44629030704803
aF-169.3740755130467
aF-169.35135344469148
aF-169.35135344469148
aF-169.2907300360567
aF-169.2907300360567
aF-169.26962808067438
aF-169.26962808067438
aF-169.26005567317165
aF-169.26005567317165
aF-169.26005567317165
aF-169.22704816308044
aF-169.22704816308044
aF-169.22626650654237
aF-169.22626650654237
aF-169.2165564817606
aF-169.21084411616187
aF-169.20987772549975
aF-169.20987772549975
aF-169.19328924496304
aF-169.18889736683562
aF-169.178090158819
aF-169.178090158819
aF-169.178090158819
aF-169.178090158819
aF-169.178090158819
aF-169.17560568260575
aF-169.17516444436396
aF-169.17516444436396
aF-169.175164444364
aF-169.17226427444913
aF-169.16381534462514
aF-169.16381534462514
aF-169.16381534462514
aF-169.1597231043287
aF-169.1597231043287
aF-169.09534531899462
aF-169.09534531899462
aF-169.09394671914052
aF-169.09394671914058
aF-169.08960606108903
aF-169.08960606108903
aF-169.07978221014548
aF-169.07978221014548
aF-169.07978221014548
aF-169.07978221014548
aF-169.07492565189395
aF-169.07492565189395
aF-169.07191976583556
aF-169.07191976583556
aF-169.07191976583556
aF-169.05251349401615
aF-169.05251349401615
aF-169.05246134893
aF-169.05246134893
aF-169.05246134893
aF-169.03209733624436
aF-169.03209733624436
aF-169.02335662426967
aF-168.98795067592917
aF-168.98795067592917
aF-168.98795067592917
aF-168.98550554790225
aF-168.98550554790225
aF-168.98550554790225
aF-168.98550554790225
aF-168.98550554790225
aF-168.98550554790225
aF-168.98550554790225
aF-168.98550554790225
aF-168.98550554790225
aF-168.98550554790225
aF-168.98550554790225
aF-168.98232093537948
aF-168.98232093537948
aF-168.98232093537948
aF-168.9823011546583
aF-168.9823011546583
aF-168.9823011546583
aF-168.98226626950304
aF-168.96418048729228
aF-168.96418048729228
aF-168.96418048729228
aF-168.94258422478748
aF-168.94258422478748
aF-168.94258422478748
aF-168.94084400978676
aF-168.94084400978804
aF-168.94084400978676
aF-168.94083598637675
aF-168.93496091415352
aF-168.9313981458359
aF-168.9313981458359
aF-168.9313981458362
aF-168.92715873746673
aF-168.92715873746673
aF-168.9267819053187
aF-168.9267819053187
aF-168.9267819053187
aF-168.9267819053187
aF-168.89596846631352
aF-168.8892982525552
aF-168.8887539593023
aF-168.8887539593023
aF-168.84970214635976
aF-168.8497021463596
aF-168.84970214635976
aF-168.84033005288285
aF-168.84033005288285
aF-168.84033005288285
aF-168.84024832073948
aF-168.80270439179705
aF-168.80270439179688
aF-168.80270439179688
aF-168.80270439179947
aF-168.80270439179688
aF-168.80270439179688
aF-168.8026961665194
aF-168.8026961665194
aF-168.79700701408314
aF-168.79700701408314
aF-168.79700701408314
aF-168.7845396206335
aF-168.77935190355086
aF-168.77927914897447
aF-168.77842671945155
aF-168.7784267194523
aF-168.7784267194523
aF-168.77842671945191
aF-168.7784267194523
aF-168.77842671945274
aF-168.7784267194523
aF-168.77768551138487
aF-168.77768551138487
aF-168.77768551138487
aF-168.77768551138487
aF-168.77765702630325
aF-168.77765702630325
aF-168.77765702630325
aF-168.77765702630325
aF-168.77765702630325
aF-168.77765702630325
aF-168.77765702630333
aF-168.77603968920272
aF-168.77603968920272
aF-168.77603968920272
aF-168.7760183215532
aF-168.7760183215532
aF-168.77601832155412
aF-168.77601832155315
aF-168.77601832155315
aF-168.77426153896778
aF-168.7706539700004
aF-168.7706539700004
aF-168.7706539700004
aF-168.7621065033635
aF-168.75814911871907
aF-168.75814911871237
aF-168.75814911871916
aF-168.7560719048528
aF-168.7560719048528
aF-168.7560719048528
aF-168.7560719048528
aF-168.7560719048528
aF-168.7560719048528
aF-168.7560719048528
aF-168.75599583135659
aF-168.75599583135659
aF-168.7559958313559
aF-168.75599583135659
aF-168.75599583135659
aF-168.75599583135659
aF-168.75599583135659
aF-168.7410696967671
aF-168.73794784907176
aF-168.73794784907176
aF-168.73794784907176
aF-168.73794784907176
aF-168.7377796428229
aF-168.73622073338785
aF-168.73621589872607
aF-168.7259393382984
aF-168.71856898059548
aF-168.71856898059548
aF-168.7155508339101
aF-168.71471485135268
aF-168.71435794850174
aF-168.714357948501
aF-168.71435794850174
aF-168.71435794850174
aF-168.71435794850174
aF-168.71314042015786
aF-168.71314042015786
aF-168.71230686134777
aF-168.71230686134777
aF-168.71230686134777
aF-168.71230686134777
aF-168.7120624953644
aF-168.7042457451984
aF-168.7042457451984
aF-168.7042457451984
aF-168.7042457451984
aF-168.7042457451984
aF-168.7042457451984
aF-168.7042457451984
aF-168.7042457451984
aF-168.70289065445948
aF-168.70289065445948
aF-168.70289065445948
aF-168.70289065445948
aF-168.70289065445948
aF-168.70289065445948
aF-168.70210911552374
aF-168.70210911552374
aF-168.70210911552374
aF-168.70210911552374
aF-168.70210911552374
aF-168.70210911552374
aF-168.70210911552374
aF-168.70210911552374
aF-168.70210911552374
aF-168.6923141385665
aF-168.6923141385665
aF-168.6923141385665
aF-168.69231413856616
aF-168.69231413856616
aF-168.69231413856616
aF-168.69231413856616
aF-168.69231413856616
aF-168.69231413856616
aF-168.69231413856616
aF-168.69231413856616
aF-168.69231413856616
aF-168.69231413856616
aF-168.69231413856616
aF-168.69231413856616
aF-168.69231413856696
aF-168.69231413856616
aF-168.69231413856616
aF-168.69231413856616
aF-168.69231413856616
aF-168.69231413856616
aF-168.69231413856616
aF-168.69231413856616
aF-168.6921776897714
aF-168.68274831367347
aF-168.682438734886
aF-168.682438734886
aF-168.67972319547528
aF-168.6797231954754
aF-168.6797231954754
aF-168.67321798170087
aF-168.67321798170087
aF-168.67321798170087
aF-168.67321798170087
aF-168.67321798170087
aF-168.67321798170087
aF-168.66908112184638
aF-168.66908112184626
aF-168.66412396058243
aF-168.66412396058243
aF-168.66412396058243
aF-168.66412396058243
aF-168.6628233167665
aF-168.6628233167665
aF-168.6628233167665
aF-168.66282331676643
aF-168.6628233167665
aF-168.6603564456797
aF-168.6603564456797
aF-168.66035644568055
aF-168.66035644567958
aF-168.66035644567975
aF-168.6603564456797
aF-168.66035644567978
aF-168.66035644567958
aF-168.6603564456797
aF-168.66035644567984
aF-168.66035644567972
aF-168.66035644567958
aF-168.66035644567958
aF-168.66035644567958
aF-168.66035644567958
aF-168.66035644567958
aF-168.66035644567958
aF-168.66035644567958
aF-168.66035644567958
aF-168.66035644567967
aF-168.6603564456796
aF-168.66035644568024
aF-168.66035644567978
aF-168.66035644568004
aF-168.66035644567958
aF-168.66035644567975
aa(lp35
F-1897.0
aF-1897.0
aF-1897.0
aF-1626.0622497825643
aF-1099.0
aF-1099.0
aF-1099.0
aF-1035.8019799039307
aF-1009.5894290280181
aF-1009.1890010421696
aF-1008.894838006562
aF-982.9902564035821
aF-940.8465718379093
aF-916.820636350471
aF-895.8765726666244
aF-867.2236505218073
aF-842.6116553591785
aF-808.626901765404
aF-807.6898433115314
aF-784.3181890279736
aF-767.7984765379563
aF-736.2315815502892
aF-703.3947329643134
aF-692.2438748273275
aF-669.0766715904377
aF-660.2782236856946
aF-654.2570729623812
aF-637.9583244152759
aF-626.2071916751967
aF-626.2071916751967
aF-625.925727803312
aF-623.3060712439167
aF-613.2148116766538
aF-607.9688731519466
aF-603.4161343966797
aF-596.1108601702973
aF-582.6371328089464
aF-568.5182894271953
aF-566.968607264802
aF-564.6282927766164
aF-563.4324925194464
aF-558.893840255356
aF-553.2426228731119
aF-552.5950441864303
aF-551.3817835041593
aF-542.1358038698221
aF-534.8484041156228
aF-530.0538742511598
aF-527.1505518992221
aF-525.6347327790855
aF-523.836150074458
aF-521.7015422194103
aF-518.2400261029918
aF-515.8648403103953
aF-514.8938369177293
aF-511.4816902362774
aF-510.2403270580717
aF-508.70625089273454
aF-505.33916281254903
aF-501.16714605595365
aF-499.60692324206644
aF-497.7084800150033
aF-495.66910512559855
aF-494.1956775619332
aF-491.3810439683825
aF-489.8305566904319
aF-487.69175409530976
aF-487.1682334541666
aF-484.93560620732217
aF-483.3262332653675
aF-482.22177378810187
aF-481.51449962437556
aF-480.7731925488631
aF-480.33048582685035
aF-479.8526164193515
aF-479.56456216166686
aF-479.14690894264663
aF-472.21965384750644
aF-471.0219903508201
aF-469.790835521794
aF-467.428852343469
aF-466.13224991236456
aF-465.67086536519884
aF-465.2536211366298
aF-464.99493455505456
aF-464.49840612595835
aF-464.0053735183563
aF-463.5024528641808
aF-463.3039053128689
aF-462.9302175466064
aF-461.64812544234246
aF-461.3198329924375
aF-460.83913485118836
aF-460.4393782595707
aF-460.203529633213
aF-460.0279166056078
aF-459.63173028868346
aF-458.9794260880967
aF-458.4449758152716
aF-457.8476145079491
aF-457.84056255807064
aF-457.8065230485351
aF-457.49163469079207
aF-456.94926308003613
aF-455.44373907385466
aF-455.26448478823335
aF-454.7652318839723
aF-454.2893264886262
aF-453.93383741210505
aF-453.80619605525754
aF-453.48771212097944
aF-453.2656689977726
aF-452.69139475447184
aF-452.3637643712251
aF-451.5694864806521
aF-451.430559857479
aF-451.00172337989324
aF-450.9018270743847
aF-450.58499953110277
aF-450.3248090469322
aF-450.24071386215513
aF-449.9803130814458
aF-449.77520657491965
aF-449.3617618193175
aF-449.2950860390192
aF-448.960816638768
aF-448.9124094031269
aF-448.4528999208215
aF-448.3276555614711
aF-448.18991695678415
aF-448.16079635357573
aF-448.09527180381184
aF-448.0510227301875
aF-447.91450406680957
aF-447.8610775885693
aF-447.84508626239693
aF-447.7623255985311
aF-447.7056917077856
aF-447.5546197303258
aF-447.54568659728557
aF-447.48274150929916
aF-447.17618970042105
aF-447.11577234085536
aF-447.1133241037113
aF-447.03482234877134
aF-446.7797311395755
aF-446.71522576752676
aF-446.7071958766517
aF-446.58402874357904
aF-446.5306979218298
aF-446.47815718987374
aF-446.10916616307185
aF-445.938148802194
aF-445.90394174452985
aF-445.8788588388481
aF-445.62344602652024
aF-445.54499849381307
aF-445.463887030478
aF-445.35543222528185
aF-445.33181655861273
aF-445.2999914913716
aF-445.29722744461134
aF-445.24986709268444
aF-445.2271723286119
aF-445.20582401142616
aF-445.18818186936437
aF-445.02954977349634
aF-444.9251769662268
aF-444.8395337798847
aF-444.8137526944134
aF-444.7637129626752
aF-444.6827490398059
aF-444.57984784877476
aF-444.5641225005417
aF-444.5441943877186
aF-444.5052266940977
aF-444.4670846899482
aF-444.4250226826945
aF-444.3676776103353
aF-444.27052668440115
aF-444.2307477732751
aF-444.1965214518574
aF-444.17426207486733
aF-444.1496518691004
aF-444.1097495732548
aF-444.0871805796177
aF-444.0777014262339
aF-444.04089094014
aF-444.0354002310206
aF-444.0029462652277
aF-443.9772637648246
aF-443.97544040837596
aF-443.96996404508775
aF-443.9626523132519
aF-443.9586514598639
aF-443.95709883229017
aF-443.9462610299067
aF-443.93160121057167
aF-443.9293692481485
aF-443.8995883804488
aF-443.88731208607874
aF-443.8773853502539
aF-443.8425354846935
aF-443.7819701913165
aF-443.6894806319567
aF-443.6779531364254
aF-443.6577321968005
aF-443.6577321968005
aF-443.64547012759
aF-443.6441978324002
aF-443.6322711511877
aF-443.5985529655944
aF-443.59799624689464
aF-443.56786301914957
aF-443.5624454320965
aF-443.5586446981685
aF-443.545501050111
aF-443.523707088924
aF-443.51407480857415
aF-443.5137404493072
aF-443.50663283219933
aF-443.4998121003671
aF-443.4919761339071
aF-443.49069276827476
aF-443.48087639501233
aF-443.4808179434259
aF-443.47993208893047
aF-443.47879491098143
aF-443.47807833305166
aF-443.4752028996513
aF-443.4750848802996
aF-443.4731365500963
aF-443.4724541031734
aF-443.4661486764371
aF-443.4603883542206
aF-443.4537766885855
aF-443.4533332810194
aF-443.44654036546586
aF-443.4428296520181
aF-443.43727945662357
aF-443.4363206078556
aF-443.4340367769462
aF-443.43365445449984
aF-443.43316009988825
aF-443.43295742586173
aF-443.43185129098407
aF-443.43144746149034
aF-443.4307463799561
aF-443.43064651607403
aF-443.4300971614218
aF-443.4290560725197
aF-443.42856334507564
aF-443.42771113036457
aF-443.4265120551097
aF-443.4265120551097
aF-443.4265120551097
aF-443.4265120551097
aF-443.42641771864123
aF-443.4261939330026
aF-443.4251796775343
aF-443.42455493275105
aF-443.4238420131294
aF-443.4237346356183
aF-443.4229432622904
aF-443.42237366162794
aF-443.42212369199433
aF-443.42212369199416
aF-443.4221236919945
aF-443.42212369199433
aF-443.42212369199433
aF-443.42212369199433
aF-443.42212369199433
aF-443.42212369199433
aF-443.42212369199433
aF-443.42212369199433
aF-443.42212369199433
aF-443.42212369199433
aF-443.42212369199433
aF-443.42212369199433
aF-443.42212369199433
aF-443.42212369199433
aF-443.42212369199433
aF-443.42212369199433
aF-443.42212369199433
aF-443.42212369199433
aF-443.42212369199433
aF-443.42212369199433
aF-443.42212369199433
aF-443.42212369199433
aa(lp36
F-1972.0
aF-1972.0
aF-1972.0
aF-1440.0
aF-1440.0
aF-1440.0
aF-1392.2129248224505
aF-1299.0716357100237
aF-1299.0
aF-1299.0
aF-1293.0
aF-1293.0
aF-1293.0
aF-1155.199697346566
aF-818.2539460511617
aF-798.6200983750408
aF-796.2937705443579
aF-795.877864379377
aF-759.7922934375481
aF-752.751416930425
aF-725.0331489783424
aF-718.9589007890771
aF-689.0486208797213
aF-673.1402319840373
aF-665.9486127800428
aF-655.699694076671
aF-642.6419390035724
aF-621.0497107458501
aF-596.0271700564359
aF-559.1410490628936
aF-548.4763958556392
aF-547.6087840314274
aF-547.5879295415137
aF-539.4923536341012
aF-526.0701141985581
aF-491.7433050918798
aF-451.94874184164615
aF-436.4254542826572
aF-430.47073829484174
aF-425.7192528919379
aF-421.38171286410767
aF-414.16506257295964
aF-412.62054609818426
aF-410.8295655402071
aF-409.64598335694603
aF-406.21421648141535
aF-386.26462887167907
aF-357.75514469008596
aF-345.75300561454947
aF-342.3786347536075
aF-336.82677384167613
aF-335.6369659584739
aF-334.9122794864609
aF-326.9567127539252
aF-323.74500607006087
aF-310.7518192366824
aF-302.3304590042497
aF-299.8619550025285
aF-289.83839746630485
aF-279.45286691614456
aF-275.925793990314
aF-273.9564015638387
aF-273.52964717963835
aF-272.27082157883194
aF-266.59539308384973
aF-262.9470827969402
aF-260.33838514263147
aF-258.6466950370374
aF-257.5318383840355
aF-251.39258651246305
aF-248.58247235135678
aF-243.83078070372127
aF-238.35549328721297
aF-237.01011829250893
aF-236.39057763947048
aF-235.98494250248365
aF-230.89283359728807
aF-228.8718447693354
aF-227.09672305154515
aF-226.995132500793
aF-226.507515316162
aF-225.02463099490208
aF-224.9203098168585
aF-223.93355509628302
aF-221.89869988546107
aF-217.7868221276481
aF-217.1991198984701
aF-217.18330649305685
aF-216.1519768077448
aF-215.1810003578549
aF-214.96285476200194
aF-214.7360001712725
aF-214.08991810726351
aF-214.0898546940085
aF-213.92289890280915
aF-211.4283163246798
aF-210.20252391140667
aF-207.76286956722308
aF-207.27203603422757
aF-206.6054231437803
aF-206.08165371458696
aF-205.00592648446428
aF-204.77912044058633
aF-203.06512284239366
aF-203.06512284239366
aF-202.79281126611306
aF-202.77660190313387
aF-202.02082782861558
aF-201.79384544415538
aF-201.4879479929817
aF-201.28600649618383
aF-200.90321313050677
aF-200.87663918385323
aF-200.4463060046788
aF-200.25061467959625
aF-200.22709362262432
aF-200.19511015158267
aF-200.17706510943592
aF-200.11229164702468
aF-199.98479517507073
aF-198.98587434229097
aF-198.61688512797406
aF-198.61688512797406
aF-196.2437705384571
aF-195.94869430821146
aF-195.84254218248677
aF-195.84254218248677
aF-195.58007232602188
aF-195.45483070664253
aF-195.21999347648753
aF-194.84428051999174
aF-194.73342191611746
aF-194.47740120575855
aF-194.4519134986077
aF-194.2324679901987
aF-194.2324679901987
aF-194.12066425238072
aF-194.12066425238072
aF-193.95410776077728
aF-193.84375935759465
aF-193.8266172238886
aF-193.8266172238886
aF-193.79678523150469
aF-193.77312044919793
aF-193.76269147950546
aF-193.6430071128919
aF-193.5936753199429
aF-193.57365278274855
aF-193.55680127889502
aF-193.4765172341691
aF-193.4765172341691
aF-193.37314221181228
aF-192.88020335249445
aF-192.83693790737902
aF-192.82398069965993
aF-192.76171409936097
aF-192.7610120858227
aF-192.72439655226188
aF-192.6686218387376
aF-192.59261946085059
aF-192.44931847992143
aF-192.38159216269366
aF-192.36017206827842
aF-192.28251823639766
aF-192.28153954118247
aF-192.25905761649423
aF-192.2450479183903
aF-192.21039710281926
aF-192.1462178063397
aF-192.14322045254258
aF-192.13972191368603
aF-192.03667251645936
aF-192.03383258033008
aF-192.01699637448056
aF-191.9859289904119
aF-191.94940702114013
aF-191.88774822211164
aF-191.84377255793632
aF-191.8140960623587
aF-191.77538573118662
aF-191.7654789908656
aF-191.70854923355517
aF-191.6678572488151
aF-191.6678572488151
aF-191.65258573811133
aF-191.64807401807332
aF-191.60577600569547
aF-191.60577600569547
aF-191.5170806697633
aF-191.5170806697633
aF-191.51136346243413
aF-191.46648545477981
aF-190.93529808189774
aF-190.88244870804735
aF-190.88244870804735
aF-190.86523289162818
aF-190.72150443403945
aF-190.72150443403945
aF-190.7042447180562
aF-190.68162360490447
aF-190.6781904827759
aF-190.66395756707615
aF-190.6556222324702
aF-190.64454174633863
aF-190.63445050158938
aF-190.63228843607857
aF-190.62090879428786
aF-190.61931578108042
aF-190.61931578108042
aF-190.5075548219139
aF-190.5075548219139
aF-190.5075548219139
aF-190.43568012625383
aF-190.431604136782
aF-190.42373633960634
aF-190.41370579628574
aF-190.40709869676843
aF-190.35929088410163
aF-190.35929088410163
aF-190.35929088410163
aF-190.3531454777152
aF-190.3531454777152
aF-190.3531454777152
aF-190.3429454194254
aF-190.3429454194254
aF-190.3183715009421
aF-190.3183715009421
aF-190.3161522379581
aF-190.3161522379581
aF-190.3161522379581
aF-190.3161522379581
aF-190.3161522379581
aF-190.3161522379581
aF-190.3141486447705
aF-190.3141486447705
aF-190.30206497203625
aF-190.30206497203625
aF-190.30206497203625
aF-190.2954631820855
aF-190.2954631820853
aF-190.2954631820855
aF-190.29546318208537
aF-190.29432923418977
aF-190.29432923418977
aF-190.29432923418977
aF-190.29432923418977
aF-190.29432923418977
aF-190.29432923418977
aF-190.2861192854763
aF-190.28611928547642
aF-190.2861192854763
aF-190.2861192854764
aF-190.285485621825
aF-190.285485621825
aF-190.285485621825
aF-190.285485621825
aF-190.285485621825
aF-190.2854605874778
aF-190.2854605874778
aF-190.26424471226704
aF-190.26424471226704
aF-190.26424471226704
aF-190.25124696437757
aF-190.25124696437757
aF-190.25124696437757
aF-190.25124696437757
aF-190.25124696437757
aF-190.2489534180631
aF-190.2489534180631
aF-190.248953418063
aF-190.248953418063
aF-190.2489534180631
aF-190.2489534180631
aF-190.2489534180631
aF-190.2489534180631
aF-190.2489534180631
aF-190.2489534180631
aF-190.2489534180631
aF-190.23565199541142
aF-190.23565199541142
aF-190.23565199541142
aF-190.23565199541142
aF-190.22166809569885
aF-190.22166809569885
aF-190.19238610097054
aF-190.19238610097054
aF-190.19238610097054
aF-190.19238610097054
aF-190.1863153306581
aF-190.1863153306581
aF-190.18631533065778
aF-190.1863153306581
aF-190.18564945774466
aF-190.18564945774466
aF-190.18286641649834
aF-190.18286641649834
aF-190.18286641649834
aF-190.18276210644947
aF-190.17351128461448
aF-190.17351128461448
aF-190.17351128461448
aF-190.15586455469003
aF-190.15586455469003
aF-190.15586455469003
aF-190.15586455469003
aF-190.15586455469003
aF-190.15586455469003
aF-190.15586455469003
aF-190.15103097266876
aF-190.1500595668873
aF-190.14941678171496
aF-190.14941678171496
aF-190.14941678171496
aF-190.14941678171496
aF-190.14941678171496
aF-190.14941678171496
aF-190.14941678171496
aF-190.14941678171496
aF-190.14941678171496
aF-190.14941678171496
aF-190.14941678171496
aF-190.14821255044623
aF-190.14821255044623
aF-190.1472588318022
aF-190.1472588318022
aF-190.1472588318022
aF-190.1472588318022
aF-190.14711459761386
aF-190.14711459761386
aF-190.14711459761386
aF-190.14711459761386
aF-190.14711459761386
aF-190.14221873949057
aF-190.14221873949057
aF-190.12992604682523
aF-190.12977543661054
aF-190.12977543661054
aF-190.12910895009415
aF-190.12787014892504
aF-190.1278473894714
aF-190.12476782022625
aF-190.12476782022625
aF-190.12476782022625
aF-190.12476782022625
aF-190.12476782022625
aF-190.12476782022625
aF-190.12476782022625
aF-190.12476782022625
aF-190.12476782022625
aF-190.12476782022625
aF-190.12476782022625
aF-190.12476782022625
aF-190.12298051816293
aF-190.12298051816293
aF-190.12298051816293
aF-190.12298051816293
aF-190.11605647818618
aF-190.11605647818618
aF-190.11605647818618
aF-190.1080615699661
aF-190.1080615699664
aF-190.1080615699664
aF-190.10747827246612
aF-190.1074782724658
aF-190.1074782724658
aF-190.10747827246612
aF-190.10254618201765
aF-190.10254618201765
aF-190.10136957032051
aF-190.10136957032051
aF-190.10136957032051
aF-190.1013615837519
aF-190.1013615837519
aF-190.10110719640338
aF-190.10110719640338
aF-190.10021162241773
aF-190.10021162241773
aF-190.10021162241773
aF-190.10021162241773
aF-190.10021162241773
aF-190.10021162241773
aF-190.10021162241773
aF-190.10021162241773
aF-190.10021162241773
aF-190.10021162241773
aF-190.10021162241773
aF-190.08821316103493
aF-190.08821316103493
aF-190.08821316103487
aF-190.08821316103493
aF-190.08821316103493
aF-190.08821316103493
aF-190.088173188239
aF-190.0790477088836
aF-190.07904770888362
aF-190.07904770888365
aF-190.0790477088838
aF-190.07904770888373
aF-190.0790477088836
aF-190.0790477088836
aF-190.07904770888373
aF-190.0790477088836
aF-190.0790477088839
aF-190.07904770888385
aF-190.0790477088836
aF-190.0790477088836
aF-190.0790477088836
aF-190.0790477088836
aF-190.0790477088836
aF-190.0790477088836
aF-190.07904770888385
aF-190.07904770888385
aF-190.07904770888382
aF-190.07904770888277
aF-190.07904770888373
aF-190.07904770888373
aF-190.07904770888368
aF-190.07904770888385
aF-190.07904770888368
aF-190.07904770888385
aF-190.0722441305915
aF-190.0615790770939
aF-190.0601663965139
aF-190.0601663965139
aF-190.05916556655018
aF-190.03564576703764
aF-190.03564576703764
aF-190.035397154022
aF-190.035397154022
aF-190.035397154022
aF-190.035397154022
aF-190.035397154022
aF-190.035397154022
aF-190.035397154022
aF-190.035397154022
aF-190.02791878968378
aF-190.02678360203006
aF-190.026783602029
aF-190.02655329810705
aF-190.02655329810705
aF-190.0264384506891
aF-190.0264384506891
aF-190.025169902054
aF-190.025169902054
aF-190.025169902054
aF-190.025169902054
aF-190.02516990205433
aF-190.025169902054
aF-190.025169902054
aF-190.0237486215851
aF-190.0237486215851
aF-190.0209290530525
aF-190.019855603638
aF-190.01942991266634
aF-190.0188869017999
aF-190.01888690179948
aF-190.01888690179933
aF-190.01888690179823
aF-190.0188869017999
aF-190.01888690179823
aF-190.0188869017999
aF-190.0188869017999
aF-190.0188869017999
aF-190.01882307462867
aF-190.0188230746284
aF-190.01882307462887
aF-190.0188230746284
aF-190.018823074629
aF-190.01744923153282
aF-190.01744923153282
aF-190.01744923153282
aF-190.01354986852076
aF-190.01354986852076
aF-190.01354986852076
aF-190.01354986852076
aF-190.01354986852076
aF-190.01354986852076
aF-190.01354986852098
aF-190.01008928652502
aF-190.0100892865249
aF-190.01008928652507
aF-190.01008928652507
aF-190.00560514758524
aF-190.00560514758524
aF-190.00560514758524
aF-190.0052766881081
aF-190.00527668810858
aF-190.00527668810858
aF-190.0052766881065
aF-190.00527668810858
aF-190.00527668810858
aF-190.00527668810824
aF-190.00527668810824
aF-190.00527668810824
aF-190.00527668810824
aF-190.00483009958143
aF-190.00483009958057
aF-190.0048300995813
aF-190.00428758455047
aF-190.00410001740025
aF-190.00410001740025
aF-190.0041000174007
aF-190.0041000174007
aF-190.0041000174007
aF-190.0041000174007
aF-190.0041000174007
aF-190.00398844066004
aF-190.0039884406622
aF-190.00340199647547
aF-190.00340199647547
aF-190.00340199647547
aF-190.00340199647547
aF-190.00295842955794
aF-190.00295842955794
aF-190.00295842955794
aF-190.00295842955794
aF-190.00295842955794
aF-190.00295842955794
aF-190.00273336482684
aF-190.00196733293163
aF-190.00196733293163
aF-190.00196733293163
aF-190.00196733293163
aF-190.00196733293163
aF-190.00196733293163
aF-190.00195431437524
aF-190.00152952476296
aF-190.00152952476296
aF-190.00152952476296
aF-190.00152952476296
aF-190.00057760691462
aF-190.00057760691473
aF-190.00057760691473
aF-190.00057760691473
aF-190.00057760691473
aF-190.00057760691473
aF-190.00057760691473
aF-190.00057760691473
aF-189.99968829735357
aF-189.99968829735357
aF-189.99968829735357
aF-189.99935269247848
aF-189.9993526924787
aF-189.9993526924787
aF-189.99702803589065
aF-189.99702803589065
aF-189.99702803589065
aF-189.99702803589068
aF-189.99702803589068
aF-189.99702803589068
aF-189.99702803589068
aF-189.99702803589068
aF-189.9966914225101
aF-189.99653937102212
aF-189.99653937102212
aF-189.99653937102212
aF-189.99653937102212
aF-189.99653937102212
aF-189.99644306819187
aF-189.99644306819187
aF-189.99639566400973
aF-189.99639566400964
aF-189.9963798289738
aF-189.99637982897397
aF-189.9963798289738
aF-189.9963798289738
aF-189.9963798289738
aF-189.99637982897386
aF-189.9963798289738
aF-189.99637982897386
aF-189.99637982897386
aF-189.9963798289738
aF-189.99637982897386
aF-189.99637982897386
aF-189.9963798289738
aF-189.9963798289738
aF-189.9963798289738
aF-189.9963798289738
aF-189.99637982897386
aF-189.9963798289738
aa(lp37
F-1900.0
aF-1900.0
aF-1900.0
aF-1340.0
aF-1340.0
aF-1340.0
aF-1267.0739527704702
aF-1265.734063220969
aF-1264.0
aF-1201.6048914104729
aF-992.617636736887
aF-909.728003854318
aF-902.0028108595216
aF-901.4655544678703
aF-830.75077835887
aF-800.1412302474342
aF-754.5343259001777
aF-711.1234058741364
aF-694.4619370666005
aF-671.2316331578497
aF-643.958701748271
aF-626.1849069521742
aF-625.305008788141
aF-624.436889987731
aF-573.0900308485755
aF-570.556753989197
aF-535.2845469314877
aF-532.0563973388996
aF-516.7235601544296
aF-512.6351951192692
aF-502.1718706227858
aF-494.76723731233983
aF-485.9752664340716
aF-476.3430982623531
aF-460.02049006837007
aF-458.8270219462703
aF-454.6120461439948
aF-444.5138988682011
aF-436.5764259172729
aF-426.83997903527285
aF-409.68863400107864
aF-382.04825819760526
aF-378.06798238322284
aF-374.16748481173494
aF-366.28743302462345
aF-363.50632000692207
aF-353.80841215430996
aF-353.15420976075126
aF-349.2114884122858
aF-346.0751108838383
aF-345.48424887124503
aF-344.59762375759146
aF-342.03740911743176
aF-338.7560116257516
aF-335.9273710114145
aF-331.9786390553411
aF-325.4947848107685
aF-316.76542267311635
aF-311.45004968205524
aF-311.0203358634034
aF-309.6338758545443
aF-308.50456354714447
aF-306.01221937121943
aF-301.68715904371976
aF-299.820625342406
aF-298.0057204546274
aF-297.073110831332
aF-295.5338875695441
aF-293.18501477464935
aF-291.34148348291603
aF-289.7981470036775
aF-289.5173621563353
aF-287.385069813529
aF-285.7136209268198
aF-284.53160696642595
aF-283.50775420412936
aF-283.0652552897008
aF-281.0842256557375
aF-281.0576131589256
aF-280.8866155801917
aF-280.0467607355328
aF-278.71321559532623
aF-278.1113237171213
aF-276.0938645939386
aF-274.91780387047856
aF-269.58913004254725
aF-269.10503333637547
aF-268.6857175797647
aF-268.5524991169241
aF-268.19436803137455
aF-267.7335749006957
aF-266.8949187708647
aF-266.7507450725979
aF-266.2648977584967
aF-265.98146532746654
aF-265.55296900370234
aF-264.46461927091514
aF-263.86153733115594
aF-263.76077867540937
aF-263.65154568047313
aF-263.6190017894375
aF-263.0682419703724
aF-262.8162700632135
aF-262.64622778832364
aF-262.5815991268516
aF-262.48721004675957
aF-262.4467710273001
aF-262.3522306120983
aF-262.09460302302165
aF-262.0259948721003
aF-261.55159805349774
aF-260.92744092044
aF-260.79970240111305
aF-260.7514750738314
aF-260.468075960077
aF-260.41284594627473
aF-260.29169158082857
aF-259.8798264783261
aF-259.832348431373
aF-259.6451810435425
aF-259.6300435249583
aF-259.01515882185487
aF-258.9295571123597
aF-258.7966343843808
aF-257.66411744963665
aF-257.3018268094492
aF-257.22210943361443
aF-257.1659588062791
aF-256.85387649041417
aF-256.3705488212329
aF-256.1982767765312
aF-256.10912874023603
aF-255.76974132502346
aF-255.643322025518
aF-255.57135862779165
aF-255.54107055040566
aF-255.51537693470578
aF-255.29058153355248
aF-254.68052071361913
aF-254.55829258707874
aF-254.42439722576117
aF-254.37892270901168
aF-254.21051189112973
aF-254.01076749007237
aF-253.97794474702602
aF-253.95639156016637
aF-253.94742006432554
aF-253.41356999631256
aF-253.40973368207452
aF-253.40935514060976
aF-253.3998768356394
aF-253.37257159287896
aF-253.37257159287896
aF-253.37257159287896
aF-253.23841928208668
aF-253.23841928208668
aF-253.20000401213062
aF-253.20000401213062
aF-253.20000401213062
aF-253.15753347710577
aF-253.15753347710577
aF-253.047673780227
aF-252.92823166745038
aF-252.91257959766475
aF-252.91257959766475
aF-252.91257959766475
aF-252.81128715881607
aF-252.78593327220227
aF-252.66639368359532
aF-252.64729162241275
aF-252.60395460970653
aF-252.58827663288167
aF-252.52983787590762
aF-252.5250290067955
aF-252.4407962903563
aF-252.23182491785408
aF-252.138154532679
aF-252.138154532679
aF-252.10025001141202
aF-252.10025001141202
aF-252.01925004310058
aF-252.01925004310058
aF-252.01925004310058
aF-251.98785459125796
aF-251.98785459125764
aF-251.93593880773858
aF-251.93471438639634
aF-251.8889599883203
aF-251.83451777404431
aF-251.79525470533545
aF-251.71086616264023
aF-251.62118684436516
aF-251.62118684436516
aF-251.6197973215044
aF-251.6197973215044
aF-251.6197973215044
aF-251.61742202866333
aF-251.59999451851402
aF-251.5587455681844
aF-251.5547055248205
aF-251.55189298293965
aF-251.55189298293965
aF-251.53408517349268
aF-251.52153844309083
aF-251.4554213072396
aF-251.4554213072396
aF-251.4554213072396
aF-251.44289590829274
aF-251.43751819646033
aF-251.4328434882473
aF-251.33001864284157
aF-251.29347744390012
aF-251.29347744390012
aF-251.26470118311713
aF-251.26470118311713
aF-251.26470118311713
aF-251.25608696429788
aF-251.25333752509627
aF-251.25333752509627
aF-251.25333752509627
aF-251.2033603228597
aF-251.17282971305852
aF-251.16646205305923
aF-251.15417408336472
aF-251.15417408336472
aF-251.1472324931527
aF-251.12541515282714
aF-251.08036197902192
aF-251.08036197902192
aF-251.08036197902192
aF-251.0769319663639
aF-251.0769319663639
aF-251.0769319663639
aF-251.0769319663639
aF-251.0769319663639
aF-251.0769319663639
aF-251.0769319663639
aF-251.0769319663639
aF-251.0769319663639
aF-251.0769319663639
aF-251.0769319663639
aF-251.0769319663639
aF-251.0769319663639
aF-251.07693196636384
aF-251.0769319663639
aF-251.0769319663639
aF-251.0769319663639
aF-251.0769319663639
aF-251.0769319663638
aF-251.0769319663639
aF-251.07693196636393
aF-251.0769319663639
aF-251.0769319663639
aF-251.0769319663639
aF-251.0769319663639
aF-251.0769319663638
aF-251.0769319663637
aF-251.0769319663639
aF-251.0769319663639
aF-251.0769319663639
aa(lp38
F-1913.0
aF-1913.0
aF-1913.0
aF-1375.0
aF-1375.0
aF-1375.0
aF-1340.5420729782397
aF-801.9074117705189
aF-801.0
aF-801.0
aF-781.0
aF-781.0
aF-781.0
aF-741.3312098100411
aF-591.4605672452474
aF-591.4605672452474
aF-585.9245470209765
aF-585.3798993555743
aF-572.31403583539
aF-560.7077788144387
aF-550.2373374483287
aF-545.9522846179965
aF-545.6838403121816
aF-545.5157406792988
aF-537.0079976170617
aF-532.2869703578912
aF-510.40901944925287
aF-495.4152698698544
aF-492.99699265346095
aF-485.8562672570097
aF-478.4354029378067
aF-475.60832892593993
aF-471.44372640328686
aF-443.7275880900322
aF-431.9203788292682
aF-413.1582223468481
aF-411.33509979554975
aF-407.5698720313348
aF-404.20214688979894
aF-401.51570148839716
aF-400.6770374042344
aF-397.5361112003765
aF-387.9958466953065
aF-383.41307666068104
aF-377.1621312110761
aF-373.9140958120332
aF-366.68613408713503
aF-364.32311848109435
aF-363.8177560650285
aF-357.6578558409849
aF-355.35895646074704
aF-353.3982999609038
aF-344.37375926635815
aF-336.81076299515627
aF-324.4847358281541
aF-324.0045542806826
aF-317.36667833661534
aF-309.9351532421063
aF-309.70260805732823
aF-308.43133157300736
aF-308.1265146397735
aF-305.4102988964687
aF-304.3819777810838
aF-302.0677996649914
aF-298.16404351817613
aF-297.14846879640584
aF-296.6122927039398
aF-296.3225324672801
aF-295.9265146593513
aF-295.07190450935605
aF-293.8173300945573
aF-291.9089562442712
aF-291.4853682816728
aF-290.60298189459456
aF-290.4691261524554
aF-289.88918755735085
aF-287.63749649181153
aF-286.68434500706474
aF-286.5197669259402
aF-286.3200815752574
aF-285.4944366547272
aF-284.0883073368469
aF-283.6632127282388
aF-282.9689608575662
aF-281.95295976516474
aF-281.22037073797446
aF-280.6579969943801
aF-280.47938129405793
aF-279.16992045919005
aF-279.0931461897342
aF-278.5945882745532
aF-276.20001912462175
aF-275.4214318813286
aF-274.2194902237057
aF-274.1373086431524
aF-274.02842116341094
aF-273.69862419918877
aF-273.66262396651155
aF-273.45354639756863
aF-272.814548218637
aF-271.9335005210592
aF-271.0411129536361
aF-269.63889700500306
aF-268.54412521330926
aF-267.63013944552966
aF-267.44135233328643
aF-267.15682092563827
aF-266.91212681621744
aF-266.5053186024827
aF-266.5053186024827
aF-265.4714849892886
aF-264.13138506277454
aF-263.9527815989691
aF-263.36647233219196
aF-261.77592790718666
aF-261.11460694667267
aF-260.79497145830436
aF-260.53645309820257
aF-259.93993894655154
aF-259.92243788769565
aF-259.8420955975636
aF-259.7771335466245
aF-259.775739451406
aF-259.6550211796699
aF-259.6550211796699
aF-259.5657092594592
aF-259.5657092594592
aF-259.4440217828378
aF-259.3506212124085
aF-259.18530052930345
aF-258.90258525253535
aF-258.64350821967514
aF-258.50521775069933
aF-258.50521775069933
aF-258.0586706491791
aF-258.0586706491791
aF-257.69558778799257
aF-257.16713045144206
aF-256.9588980749954
aF-256.41668474420277
aF-256.324399402083
aF-256.2825894597999
aF-256.124451010915
aF-255.9673990187002
aF-255.6740088051162
aF-255.34586070232518
aF-255.25613438120826
aF-255.14834542501555
aF-255.09945211476906
aF-255.03576591869734
aF-254.90122623824215
aF-254.42914298635586
aF-254.2867302058503
aF-254.20571630146895
aF-253.66238420756022
aF-253.54718371118304
aF-253.01572020551168
aF-252.9064793067468
aF-252.86098203723236
aF-252.75301376811305
aF-252.63835590701177
aF-252.48040054215372
aF-252.41405688807995
aF-252.27290858355892
aF-252.17574998227087
aF-252.1463122724728
aF-252.03326185295185
aF-251.8570084195081
aF-251.62063375133445
aF-251.56455821079635
aF-251.52392258431
aF-251.4857580499379
aF-251.44643099038072
aF-251.44174968291387
aF-251.30614083710012
aF-251.20964525852955
aF-251.0820502080103
aF-251.06321931190993
aF-251.02935047512662
aF-250.96877444473276
aF-250.89136985387302
aF-250.87171841696104
aF-250.86213984861612
aF-250.83113855318578
aF-250.79202205891616
aF-250.73329988830633
aF-250.720475127996
aF-250.68151643984385
aF-250.6814776830286
aF-250.59529732641425
aF-250.55098615039915
aF-250.51240698662664
aF-250.48459479572296
aF-250.465194432332
aF-250.4449811024918
aF-250.3858555725285
aF-250.37852510542166
aF-250.3237651076758
aF-250.20129634131794
aF-250.06728249346946
aF-250.04347592327676
aF-250.02575682539793
aF-250.00666405837606
aF-249.99308833444155
aF-249.97716528731408
aF-249.97177239324267
aF-249.96297607229835
aF-249.96297607229835
aF-249.95438535262113
aF-249.89480631068395
aF-249.88982967223419
aF-249.88275140968685
aF-249.8790668419009
aF-249.8691854764925
aF-249.8599727307701
aF-249.8314933450671
aF-249.79013634889986
aF-249.70639175003114
aF-249.68038353339767
aF-249.64164044623743
aF-249.59296086115597
aF-249.57276982206113
aF-249.56804036965474
aF-249.56180061792134
aF-249.51839587868938
aF-249.47225178559037
aF-249.46418311454306
aF-249.43250463152594
aF-249.42337787078023
aF-249.42011380058256
aF-249.42011380058256
aF-249.40009161129967
aF-249.3686414960006
aF-249.3582390032848
aF-249.3227026262651
aF-249.28392084340285
aF-249.260566430206
aF-249.25735497400208
aF-249.2316539951538
aF-249.22891316526304
aF-249.2203767979824
aF-249.2181396767412
aF-249.21193722402714
aF-249.2048423905494
aF-249.17096353641355
aF-249.17096353641355
aF-249.17096353641355
aF-249.16934079298042
aF-249.16934079298042
aF-249.16248041041382
aF-249.16248041041382
aF-249.1615585783263
aF-249.1612687333317
aF-249.1612687333317
aF-249.15613522960433
aF-249.14659748443003
aF-249.14319318950166
aF-249.14117645030097
aF-249.13847047583823
aF-249.1286478310576
aF-249.12706732001135
aF-249.1204068398156
aF-249.11879715332444
aF-249.11790576788027
aF-249.1171585993279
aF-249.11120536224288
aF-249.10887265344698
aF-249.10847577029958
aF-249.10844125207572
aF-249.1073644788767
aF-249.10714752877726
aF-249.10714752877726
aF-249.10677007484657
aF-249.10677007484657
aF-249.1063447003914
aF-249.10504572848782
aF-249.10436815942802
aF-249.1034044011061
aF-249.10288124107757
aF-249.10188211453462
aF-249.10152932794037
aF-249.09992855132344
aF-249.09649324423134
aF-249.0963507328523
aF-249.0953730267793
aF-249.0953730267793
aF-249.09453531553177
aF-249.09444590253668
aF-249.0941560707946
aF-249.09355257748348
aF-249.09301659175415
aF-249.0929593781745
aF-249.0929500455705
aF-249.09292533237456
aF-249.09291034362425
aF-249.09288456322352
aF-249.09286411909235
aF-249.09285895589792
aF-249.09285648612814
aF-249.0928564861282
aF-249.09285648612817
aF-249.09285648612814
aF-249.09285648612814
aF-249.09285648612814
aF-249.09285648612814
aF-249.09285648612814
aF-249.09285648612814
aF-249.09285648612814
aF-249.09285648612814
aF-249.09285648612814
aF-249.09285648612814
aF-249.09285648612814
aF-249.09285648612814
aF-249.09285648612814
aF-249.09285648612814
aF-249.09285648612814
aa(lp39
F-1966.0
aF-1966.0
aF-1966.0
aF-1707.52593098129
aF-1523.8692688161616
aF-1522.698276282464
aF-1522.1268489003326
aF-1396.3490857476072
aF-1287.7463844555132
aF-1287.7463844555132
aF-1287.7463844555132
aF-1214.099861118408
aF-1007.0565304698971
aF-932.8143074677671
aF-932.4667394815776
aF-931.8048084055806
aF-913.0447457939149
aF-902.9823731461165
aF-807.1821247794965
aF-770.7437572994987
aF-740.8997857351145
aF-739.8032646990564
aF-738.0642632613494
aF-720.0004136495038
aF-713.7350949690368
aF-693.4951075866041
aF-685.3172057395009
aF-666.2915622300236
aF-632.5088729037458
aF-622.3141858677227
aF-601.4580292348122
aF-589.997303040072
aF-585.7246463138823
aF-579.2350017914827
aF-575.8959940084974
aF-571.7301533863123
aF-569.6226574926419
aF-568.5032916630669
aF-563.6450994963445
aF-555.1740034729329
aF-551.7711066880098
aF-540.3533195597378
aF-537.0016028747538
aF-531.4469632845709
aF-522.7417440728174
aF-518.1527682608477
aF-513.6297811548385
aF-510.48013908645305
aF-505.3174688385273
aF-500.42705458768944
aF-494.60547606860524
aF-489.5236310355425
aF-484.64614485590664
aF-477.5673934529745
aF-475.5133633354441
aF-474.1080884770931
aF-471.77414801660575
aF-471.1478845141632
aF-466.27159466584675
aF-461.5535119426713
aF-457.0470708220977
aF-456.0531592277641
aF-453.8654659817875
aF-443.4790456759814
aF-439.4667034808225
aF-436.4478381807513
aF-431.47846053311605
aF-430.5644686370621
aF-429.94529560600125
aF-429.48374736803095
aF-427.643433640886
aF-425.110637636533
aF-424.5441590997716
aF-422.7777893133261
aF-421.32649858562564
aF-420.627782272312
aF-419.3790118874534
aF-417.15860243342325
aF-416.1547553658604
aF-415.4726229333203
aF-415.07532482193943
aF-414.8259513254569
aF-414.2522452921356
aF-413.7859294591059
aF-413.6967832193637
aF-413.1005478427708
aF-412.22328559321545
aF-410.6476378024807
aF-410.003133912945
aF-409.2669982424139
aF-408.7318486557846
aF-406.7020057338487
aF-404.3898712389503
aF-404.0761011843805
aF-403.7675752079424
aF-403.57926657507653
aF-403.0502715080394
aF-402.68628492875825
aF-402.3720131524741
aF-401.31323335476645
aF-401.1573527283437
aF-400.8856294505
aF-400.6340663092964
aF-400.44360932686504
aF-399.5884987978558
aF-399.15039370067615
aF-398.9174886930328
aF-398.7845767408424
aF-398.71619260076346
aF-398.56618414086455
aF-397.40707872625273
aF-397.11528529352375
aF-396.94616961105027
aF-396.8900246366948
aF-396.785754149134
aF-396.4421199989864
aF-396.3557613650487
aF-395.9293388378255
aF-395.70739294022775
aF-395.4968904374927
aF-395.18666035362514
aF-394.63332693813265
aF-394.4297394073074
aF-393.9282867737164
aF-393.63232553306096
aF-393.5345124163738
aF-393.319478291511
aF-392.7735876666845
aF-392.19477663048315
aF-391.8871592613379
aF-391.69309746292663
aF-391.4773905021244
aF-391.4773905021244
aF-391.390035937972
aF-391.3155750618852
aF-391.14804211386473
aF-390.6675438878809
aF-390.6675438878809
aF-390.4538950562885
aF-390.36961281598025
aF-390.3417124537357
aF-390.30195978740863
aF-390.2671260831586
aF-390.2150711293685
aF-390.21341866354646
aF-390.16330026073535
aF-390.1087486377404
aF-389.69305937753757
aF-389.57335481565343
aF-389.4158616027338
aF-389.2278916178772
aF-389.1537640983603
aF-388.9325738657349
aF-388.7888071051193
aF-388.7074442582781
aF-388.54921993048356
aF-388.47104947526344
aF-388.28172503477236
aF-388.2096913372822
aF-388.04246867006253
aF-387.5615175562722
aF-387.3775122651001
aF-387.339821975774
aF-387.29289208666273
aF-387.2065266843265
aF-387.0256471163775
aF-386.87130429007635
aF-386.75259852757233
aF-386.7008234232279
aF-386.59024539578104
aF-386.49437794653625
aF-386.397920761276
aF-386.28553265258836
aF-386.25113980978176
aF-386.1581450573672
aF-386.13739631032263
aF-386.0371640804139
aF-385.9659096325821
aF-385.8859289397792
aF-385.82879392011967
aF-385.777401419931
aF-385.6897807190942
aF-385.634410785116
aF-385.5463132163797
aF-385.3752139039663
aF-385.2336290624445
aF-385.0686945392604
aF-384.9740897523247
aF-384.90588674414875
aF-384.64036333122976
aF-384.5766250292021
aF-384.5159780830569
aF-384.4990073469222
aF-384.45983910925327
aF-384.4082801722089
aF-384.3835457012775
aF-384.3261976158592
aF-384.1813490831678
aF-384.17370366916975
aF-384.1522725072095
aF-384.1482484402783
aF-384.13123093991766
aF-384.04987421770517
aF-383.9402467951272
aF-383.87438178752546
aF-383.75830823229023
aF-383.74804742632097
aF-383.67573884303977
aF-383.6491566263377
aF-383.5844530422637
aF-383.48852841037416
aF-383.4673339216025
aF-383.4552817770598
aF-383.3976836726072
aF-383.36119002487965
aF-383.35656307937205
aF-383.3423503912591
aF-383.32800696571724
aF-383.31442656808616
aF-383.3098060051447
aF-383.28698376748645
aF-383.25116668033104
aF-383.14960903468483
aF-383.05430576319134
aF-382.9583433288479
aF-382.9583433288479
aF-382.9583433288479
aF-382.9583433288479
aF-382.95177098648946
aF-382.95177098648946
aF-382.89231833075644
aF-382.89231833075644
aF-382.8810214471604
aF-382.8810214471604
aF-382.8810214471604
aF-382.8810214471604
aF-382.8073355236555
aF-382.8073355236555
aF-382.8073355236555
aF-382.7892176291614
aF-382.7676174602608
aF-382.7654384416411
aF-382.74890462035967
aF-382.74890462035967
aF-382.74890462035967
aF-382.68858739710197
aF-382.68858739710197
aF-382.68858739710197
aF-382.6832128887494
aF-382.6830938894464
aF-382.6797086736911
aF-382.66839069011235
aF-382.6586587565816
aF-382.6129169344544
aF-382.60733077834334
aF-382.5970614718161
aF-382.59475748985597
aF-382.58848415463945
aF-382.56403749025554
aF-382.56403749025554
aF-382.56403365719484
aF-382.56165087431566
aF-382.56165087431566
aF-382.54839326748515
aF-382.54839326748515
aF-382.54246368455557
aF-382.54234315026883
aF-382.5384393624811
aF-382.5382461702272
aF-382.5382461702272
aF-382.5375649193479
aF-382.5325463081232
aF-382.53126919332874
aF-382.53126919332874
aF-382.50821728200714
aF-382.50821728200714
aF-382.50821728200714
aF-382.4993123590622
aF-382.4993123590622
aF-382.488271311886
aF-382.4669015150508
aF-382.46687816105015
aF-382.46687816105015
aF-382.4616235299229
aF-382.4616235299229
aF-382.46091098002296
aF-382.46091098002296
aF-382.4548197954586
aF-382.4548197954587
aF-382.4526315381446
aF-382.4526315381446
aF-382.45263153814443
aF-382.4526315381446
aF-382.4380218479319
aF-382.4380218479319
aF-382.4362353959151
aF-382.4362353959151
aF-382.42360722861633
aF-382.4219672723548
aF-382.41980736534197
aF-382.41222349636365
aF-382.41214663636515
aF-382.41164640024914
aF-382.41164640024914
aF-382.4034214880573
aF-382.4034214880573
aF-382.40240737881896
aF-382.3985359502487
aF-382.3985359502487
aF-382.3975049873743
aF-382.3975049873743
aF-382.396463250354
aF-382.3947196813796
aF-382.392055738164
aF-382.392055738164
aF-382.392055738164
aF-382.392055738164
aF-382.3689220087321
aF-382.3536534671467
aF-382.322340702077
aF-382.31897252520656
aF-382.3157991862871
aF-382.3157991862871
aF-382.30537261962377
aF-382.30537261962377
aF-382.30537261962377
aF-382.3011555131018
aF-382.3011555131018
aF-382.30027010529477
aF-382.2979224414911
aF-382.2979224414911
aF-382.29390590844747
aF-382.29390590844747
aF-382.29390590844747
aF-382.2871150250412
aF-382.2871150250412
aF-382.2871150250412
aF-382.2871150250412
aF-382.28676680103257
aF-382.27580687541627
aF-382.27580687541627
aF-382.2709839051949
aF-382.2709839051949
aF-382.2709839051949
aF-382.26784937675154
aF-382.26776539899777
aF-382.2677653989977
aF-382.26599718270546
aF-382.2626474976166
aF-382.26177920699564
aF-382.2617792069957
aF-382.25926852543984
aF-382.25921141505273
aF-382.25544110514824
aF-382.2553044184162
aF-382.25210303385836
aF-382.25210303385836
aF-382.25210303385836
aF-382.2404137804438
aF-382.24020185183116
aF-382.2385770216835
aF-382.23686201915405
aF-382.2341749857322
aF-382.2341749857322
aF-382.2341536140662
aF-382.2341536140662
aF-382.2341536140662
aF-382.2341536140662
aF-382.2341536140662
aF-382.2341536140662
aF-382.2341536140662
aF-382.2341020281905
aF-382.22212238886806
aF-382.22212238886806
aF-382.22212238886806
aF-382.22212238886806
aF-382.2138907281759
aF-382.2138907281759
aF-382.20672344633215
aF-382.20672344633215
aF-382.2042736671069
aF-382.20300382331254
aF-382.20300382331254
aF-382.20300382331254
aF-382.20300382331254
aF-382.20300382331254
aF-382.20300382331254
aF-382.19754730228186
aF-382.19754730228186
aF-382.19754730228186
aF-382.19754730228186
aF-382.19754730228186
aF-382.19754730228186
aF-382.19608128477967
aF-382.1927412627673
aF-382.1920702098518
aF-382.1920702098518
aF-382.1893306669526
aF-382.1893306669526
aF-382.1893306669526
aF-382.1868188419128
aF-382.1825945238242
aF-382.1825945238242
aF-382.1825945238242
aF-382.1825945238242
aF-382.1825945238242
aF-382.1825945238242
aF-382.1825945238242
aF-382.1804622112124
aF-382.1804622112124
aF-382.1804622112124
aF-382.1804622112124
aF-382.1804488358967
aF-382.17952188926756
aF-382.1788468098617
aF-382.1782930361366
aF-382.1782930361366
aF-382.1782930361366
aF-382.1782930361366
aF-382.1719942948242
aF-382.1719942948242
aF-382.1719942948235
aF-382.1719942948242
aF-382.1719942948242
aF-382.1719942948242
aF-382.1719942948242
aF-382.1719942948242
aF-382.1719942948242
aF-382.17199429482355
aF-382.17194968334803
aF-382.17194968334803
aF-382.17156891757855
aF-382.17156891757855
aF-382.17156891757855
aF-382.17087171853706
aF-382.1708717185363
aF-382.1708717185363
aF-382.1699474014968
aF-382.1699474014968
aF-382.1699474014968
aF-382.1699474014968
aF-382.1699474014968
aF-382.1699474014968
aF-382.1686769369578
aF-382.1686769369578
aF-382.1686769369579
aF-382.16867693695804
aF-382.1686769369578
aF-382.1686769369578
aF-382.1686769369578
aF-382.1686769369578
aF-382.16791064050597
aF-382.16791064050597
aF-382.1679106405065
aF-382.16791064050597
aF-382.16791064050597
aF-382.16791064050597
aF-382.16791064050597
aF-382.1679106405065
aF-382.16791064050597
aF-382.16791064050597
aF-382.16791064050597
aF-382.16791064050614
aF-382.1657684931809
aF-382.165732350283
aF-382.165732350283
aF-382.165732350283
aF-382.16361882966913
aF-382.1636188296691
aF-382.1636188296691
aF-382.1636188296691
aF-382.1628782922735
aF-382.1628782922735
aF-382.1628782922735
aF-382.1628782922735
aF-382.1628782922735
aF-382.16160521792966
aF-382.1600173936667
aF-382.1600173936667
aF-382.1600173936667
aF-382.1600173936667
aF-382.1600173936667
aF-382.1600173936667
aF-382.1600173936667
aF-382.1600173936667
aF-382.1595396692907
aF-382.1595396692907
aF-382.1595396692907
aF-382.1595396692907
aF-382.1595396692907
aF-382.1595396692907
aF-382.1595396692907
aF-382.1589990081684
aF-382.1587173955249
aF-382.15861005093865
aF-382.1586100509382
aF-382.1586100509382
aF-382.1586100509382
aF-382.15821963993125
aF-382.15821963993125
aF-382.15821963993125
aF-382.15821963993125
aF-382.15821963993125
aF-382.15821963993125
aF-382.15821963993125
aF-382.15821963993125
aF-382.15821963993125
aF-382.15821963993125
aF-382.15821963993125
aF-382.15821963993125
aF-382.15821963993125
aF-382.15821963993125
aF-382.15821963993125
aF-382.15821963993125
aF-382.15821963993125
aF-382.15821963993125
aF-382.1582173484833
aF-382.15757345502277
aF-382.1575734550231
aF-382.15336144423947
aF-382.15336144423947
aF-382.15336144423947
aF-382.1533488370669
aF-382.1529840233049
aF-382.1523546892148
aF-382.1523546892148
aF-382.15234241036086
aF-382.15234241036086
aF-382.1505936162793
aF-382.1505936162793
aF-382.1505936162793
aF-382.1505936162793
aF-382.1505936162793
aF-382.1505936162788
aF-382.15056957194315
aF-382.15056957194315
aF-382.15056957194315
aF-382.15056957194315
aF-382.15056957194315
aF-382.15001474632476
aF-382.15001474632476
aF-382.15001474632476
aF-382.15001474632476
aF-382.14984526951054
aF-382.1498045606197
aF-382.1498045606197
aF-382.14951913844857
aF-382.14931908466855
aF-382.14931908466855
aF-382.14931908466855
aF-382.14931908466843
aF-382.14931908466855
aF-382.14931908466855
aF-382.14891448350687
aF-382.14891448350687
aF-382.14891448350687
aF-382.14891448350687
aF-382.14891448350687
aF-382.14891448350687
aF-382.1489144835066
aF-382.14891448350687
aF-382.14891448350687
aF-382.14891448350687
aF-382.14891448350687
aF-382.14891448350687
aF-382.14891448350687
aF-382.14891448350687
aF-382.14877335955657
aF-382.14877335955657
aF-382.14877335955657
aF-382.14877335955657
aF-382.14877335955657
aF-382.14877335955657
aF-382.14815765454784
aF-382.14815765454796
aF-382.14815765454784
aF-382.14815765454784
aF-382.14815765454784
aF-382.14815765454784
aF-382.14815765454784
aF-382.14815765454784
aF-382.14815765454773
aF-382.14693874666193
aF-382.14693874666193
aF-382.14693874666193
aF-382.14693874666193
aF-382.14693874666193
aF-382.14693874666193
aF-382.146914945334
aF-382.14691494533434
aF-382.14691494533434
aF-382.1469149453343
aF-382.1469149453341
aF-382.14691494533395
aF-382.1466862168082
aF-382.14668621680767
aF-382.14668621680795
aF-382.14668621680767
aF-382.1466862168076
aF-382.14668621680767
aF-382.14668621680767
aF-382.1466862168079
aF-382.14620688839614
aF-382.1456369230183
aF-382.1456369230179
aF-382.1456369230179
aF-382.145429061035
aF-382.14542906103463
aF-382.14542906103463
aF-382.14542906103463
aF-382.145429061035
aF-382.14542906103463
aF-382.14542906103463
aF-382.14542906103463
aF-382.14542906103463
aF-382.14542906103463
aF-382.14542906103463
aF-382.14542906103463
aF-382.14542906103463
aF-382.14542906103463
aF-382.1447026176794
aF-382.1441309850846
aF-382.1441309850848
aF-382.14413098508464
aF-382.1441309850848
aF-382.1439372891869
aF-382.1439372891871
aF-382.1439372891872
aF-382.14393728918714
aF-382.14393728918685
aF-382.1438056415475
aF-382.1438056415472
aF-382.1438056415473
aF-382.1438056415472
aF-382.1438021883279
aF-382.14380218832787
aF-382.1436777523531
aF-382.1436777523531
aF-382.1436777523534
aF-382.1436777523531
aF-382.1436777523531
aF-382.1436777523531
aF-382.1412196167531
aF-382.1412196167531
aF-382.14121961675346
aF-382.14121961675346
aF-382.14121961675346
aF-382.1406089373746
aF-382.14060893737405
aF-382.1406089373746
aF-382.1406089373748
aF-382.1402622219401
aF-382.1402622219401
aF-382.1402622219401
aF-382.1402622219401
aF-382.1401381782181
aF-382.1401306356587
aF-382.14013063565875
aF-382.14013063565886
aF-382.140130635659
aF-382.140130635659
aF-382.14013063565767
aF-382.14013063565915
aF-382.140130635659
aF-382.1401306356587
aF-382.14013063565886
aF-382.1401306356588
aF-382.1401306356588
aF-382.1401306356588
aF-382.1401306356588
aF-382.14013063565886
aF-382.14000862979265
aF-382.1400086297925
aF-382.1400086297928
aF-382.1400086297927
aF-382.1400086297927
aF-382.1400086297927
aF-382.14000862979253
aF-382.1400086297933
aF-382.1397770910871
aF-382.1396563589512
aF-382.13948202770786
aF-382.13948202770814
aF-382.1394820277082
aF-382.13920344064604
aF-382.13920344064593
aF-382.13920344064604
aF-382.13920344064604
aF-382.1391214817991
aF-382.13912148179907
aF-382.1391214817991
aF-382.1391214817983
aF-382.13912148179884
aF-382.13859241916606
aF-382.13802500344093
aF-382.1380250034409
aF-382.1380250034409
aF-382.13802500344065
aF-382.1379962944372
aF-382.1379692918911
aF-382.13796929189084
aF-382.13796929189084
aF-382.13740816737203
aF-382.13740816737203
aF-382.13740816737203
aF-382.1373802011385
aF-382.1373802011385
aF-382.1373802011385
aF-382.1373802011385
aF-382.1373802011385
aF-382.1373802011382
aF-382.13718941806485
aF-382.13718941806485
aF-382.13718941806485
aF-382.13718941806485
aF-382.13718941806485
aF-382.13718941806485
aF-382.13718941806485
aF-382.13718941806485
aF-382.1371894180651
aF-382.1371894180651
aF-382.1371894180649
aF-382.13718941806485
aF-382.13718941806485
aF-382.13718627454676
aF-382.13718627454654
aF-382.13718627454654
aF-382.13718627454654
aF-382.13718627454654
aF-382.1370908280215
aF-382.13708506206183
aF-382.13708506206166
aF-382.13708506206166
aF-382.13708506206183
aF-382.13700875299696
aF-382.1369989652044
aF-382.1369989652044
aF-382.1369219307455
aF-382.1369219307455
aF-382.1369219307455
aF-382.13685897283307
aF-382.1368589728334
aF-382.1368158102548
aF-382.13672346690055
aF-382.1367234669004
aF-382.1367234669008
aF-382.13672346690055
aF-382.13672346690055
aF-382.1367234669006
aF-382.1367234669008
aF-382.1367234669006
aF-382.1365797745266
aF-382.1365797745267
aF-382.1365797745265
aF-382.13631311775924
aF-382.1363131177591
aF-382.13631311775936
aF-382.13631311775936
aF-382.13631311775936
aF-382.13623652122135
aF-382.1362365212213
aF-382.1362365212213
aF-382.1362365212213
aF-382.1362365212213
aF-382.1362365212214
aF-382.1362365212214
aF-382.1362365212214
aF-382.1362365212213
aF-382.1362365212213
aF-382.1362365212212
aF-382.13623652122135
aF-382.1362365212214
aF-382.1362365212214
aF-382.1362365212214
aF-382.13623652122135
aF-382.13623652122135
aF-382.1361337051513
aF-382.1361337051512
aF-382.1360941893041
aF-382.1360182735907
aF-382.13588508530586
aF-382.13588508530586
aF-382.1358850853064
aF-382.13588508530586
aF-382.135885085306
aF-382.13588508530586
aF-382.13588508530603
aF-382.13588508530586
aF-382.13588508530586
aF-382.13553543145383
aF-382.1355354314537
aF-382.1355354314536
aF-382.1355354314538
aF-382.13500224878385
aF-382.135002248784
aF-382.13500224878385
aF-382.13500224878385
aF-382.1348709530151
aF-382.13487095301485
aF-382.134697445855
aF-382.1346908208913
aF-382.1346908208908
aF-382.1346908208913
aF-382.1346908208908
aF-382.1346908208908
aF-382.1346908208913
aF-382.1346908208914
aF-382.13466091768885
aF-382.134660917689
aF-382.13466091768885
aF-382.134660917689
aF-382.13466091768885
aF-382.134660917689
aF-382.134660917689
aF-382.13466091768885
aF-382.1339785856978
aF-382.1339785856978
aF-382.13397858569743
aF-382.13397858569743
aF-382.1339785856978
aF-382.133486854811
aF-382.1334868548109
aF-382.133486854811
aF-382.1333961403091
aF-382.1333929721492
aF-382.13291721478686
aF-382.13291721478686
aF-382.13291721478686
aF-382.13291721478686
aF-382.13291721478686
aF-382.1326580132464
aF-382.1326580132464
aF-382.1326580132464
aF-382.1326580132464
aF-382.13247400800157
aF-382.13247400800117
aF-382.13245575056527
aF-382.13231953873617
aF-382.1322782888791
aF-382.13227828887926
aF-382.13227828887926
aF-382.1320960663448
aF-382.1320960663444
aF-382.1320960663448
aF-382.1320960663448
aF-382.1318309320296
aF-382.1318309320296
aF-382.1318309320293
aF-382.1318309320293
aF-382.1318309320293
aF-382.1318309320296
aF-382.1318309320296
aF-382.1318309320296
aF-382.1318309320296
aF-382.13183093202696
aF-382.1318309320296
aF-382.131821005311
aF-382.13175523472705
aF-382.13175523472705
aF-382.13175332624974
aF-382.1317533262498
aF-382.1317533262498
aF-382.1317533262498
aF-382.13169217434194
aF-382.13169217434194
aF-382.13169217434194
aF-382.13169217434233
aF-382.13169217434194
aF-382.13164126561685
aF-382.13164126561696
aF-382.13164126561725
aF-382.13164126561685
aF-382.13164126561696
aF-382.13164126561696
aF-382.13164126561696
aF-382.13164126561696
aF-382.13164126561685
aF-382.13164126561696
aF-382.13164126561696
aF-382.13164126561685
aF-382.1316412656171
aF-382.13164126561696
aF-382.1316128295214
aF-382.1316128295214
aF-382.1316128295211
aF-382.1316128295217
aF-382.13161282952115
aF-382.1316128295214
aF-382.13161282952115
aF-382.1316128295212
aF-382.13161282952166
aF-382.1316128295215
aF-382.13161282952115
aF-382.13161282952115
aF-382.13161282952115
aF-382.13161282952143
aF-382.13161282952115
aF-382.1316128295215
aF-382.1316128295214
aa(lp40
F-1858.0
aF-1858.0
aF-1858.0
aF-1792.0
aF-1792.0
aF-1792.0
aF-1690.0
aF-1690.0
aF-1690.0
aF-1689.7654096297397
aF-1620.2470784443599
aF-1619.0
aF-1619.0
aF-1408.8410737607321
aF-1062.401709098482
aF-990.9201816082893
aF-983.5344089237519
aF-955.9157557932524
aF-944.5720797043424
aF-881.1049401523777
aF-872.7116563886248
aF-867.9837865832561
aF-861.6356450680152
aF-854.646026644653
aF-831.1621854488195
aF-826.4446756806915
aF-816.8363511903216
aF-804.3700694485813
aF-762.4746351845806
aF-730.1272194443483
aF-711.5753850423514
aF-699.8285811815527
aF-694.3560064351799
aF-689.8012217389544
aF-681.0259899566249
aF-669.4107063749476
aF-660.699534506757
aF-652.7031364375338
aF-635.6995002055904
aF-598.6657223039484
aF-578.467075674225
aF-567.2385854561331
aF-549.0195085873072
aF-534.7931512469031
aF-532.2405063227882
aF-531.5901230580397
aF-528.8132813787198
aF-526.2586513761335
aF-520.6339085680823
aF-514.0819811952863
aF-509.77315911654716
aF-504.59070429194037
aF-504.3072046187275
aF-503.3376927334051
aF-491.82536736954523
aF-487.585556170483
aF-484.09955872605747
aF-481.0295007452373
aF-469.29317708469694
aF-468.7126634601765
aF-462.9197222040712
aF-461.7826612704483
aF-460.3609655521356
aF-458.47925167389644
aF-447.98576687525286
aF-446.91570250822843
aF-445.7666117348259
aF-442.28300061510674
aF-440.13402432695017
aF-435.8359388192362
aF-434.6069667338052
aF-432.86254229388135
aF-429.82027073994294
aF-427.85146369791124
aF-427.7356687011473
aF-426.0840058107463
aF-424.6060331965357
aF-423.348526430718
aF-420.24376485186815
aF-419.56184355097463
aF-416.17133712271243
aF-414.25093484561415
aF-413.64044498115857
aF-411.5367175099528
aF-408.45490035658236
aF-406.93310353931616
aF-403.05645677045044
aF-400.96426492514723
aF-399.51412459390673
aF-398.46426043819633
aF-393.61279258078116
aF-391.31050969360024
aF-389.57922071393557
aF-389.0239367907011
aF-387.29119978087544
aF-385.50920603395497
aF-384.7320064532097
aF-382.5447663233175
aF-381.61651822477273
aF-380.4204193117271
aF-378.0607243911979
aF-376.7257005513896
aF-374.3456767372237
aF-372.3500796168988
aF-371.39773341341976
aF-371.2334387428419
aF-370.0094247915738
aF-367.1591964581673
aF-366.2713035566841
aF-365.20192918288456
aF-364.6640002379972
aF-363.4044109195014
aF-361.21826047593646
aF-359.5689858445286
aF-358.4843129549695
aF-357.74003286241066
aF-357.20169914284236
aF-356.76126825977326
aF-356.4706140448298
aF-356.04049489600595
aF-355.5998797940096
aF-355.31674788881026
aF-354.9330641531195
aF-354.79900048492703
aF-353.8021941794728
aF-353.50538188223777
aF-352.5235621407229
aF-351.46003369817055
aF-350.760846839872
aF-350.3674297889054
aF-350.2098637962673
aF-349.7159172158468
aF-349.5907068373471
aF-348.9886994914543
aF-348.574756573116
aF-348.47774721600274
aF-348.46742506109337
aF-348.2755862633666
aF-347.6502842686217
aF-347.0773157326222
aF-347.0239920304997
aF-346.756201600479
aF-346.5203118339792
aF-346.3332772922848
aF-345.597934285507
aF-345.5602824661642
aF-343.35676643067984
aF-343.0198732029843
aF-342.48614821824094
aF-341.6075789488667
aF-340.4929200909319
aF-340.33566627638976
aF-339.7694416446786
aF-338.97581737630713
aF-338.8060980359586
aF-338.8060980359586
aF-338.129806053807
aF-337.8320943325574
aF-337.5841733493886
aF-337.56933492445347
aF-337.36682562279384
aF-337.0309432105995
aF-336.9646181553264
aF-336.7666182245614
aF-336.50157913266423
aF-336.38087055409426
aF-336.3367861725536
aF-336.13745341799154
aF-336.13694543693106
aF-336.0375000783498
aF-336.0375000783498
aF-336.0304525383238
aF-336.0294794754536
aF-336.0294794754536
aF-335.9872326668934
aF-335.6526714120562
aF-335.4348613926954
aF-335.4151621834846
aF-335.30473657858084
aF-335.01453565915403
aF-334.98272632833675
aF-334.95887864586484
aF-334.8370227370625
aF-334.6371331003346
aF-334.6371331003346
aF-334.3862853558837
aF-334.34266242021886
aF-334.244051048415
aF-334.1566970560841
aF-333.823470898538
aF-333.69716548083295
aF-333.2602567790551
aF-333.1043109608365
aF-332.5471972350093
aF-332.4041060056762
aF-332.34236451317395
aF-332.28128820792415
aF-332.2118164703655
aF-331.90475871473006
aF-331.8853843943927
aF-331.7925101308252
aF-331.36394910674113
aF-331.2727725616557
aF-331.054493341306
aF-331.0065257170884
aF-330.93560932656914
aF-330.867960578403
aF-330.5098124433927
aF-330.3320289803012
aF-330.17708461212976
aF-330.0276434683651
aF-329.91393084940853
aF-329.8565780423991
aF-329.81068603888946
aF-329.80206453957584
aF-329.68426902467155
aF-329.6445354540615
aF-329.55015014091845
aF-329.45111421809077
aF-329.3979860914163
aF-329.25253527287606
aF-329.1336527121542
aF-329.11082280739316
aF-328.9895077819754
aF-328.5084883540272
aF-328.4281567960649
aF-328.4009754490745
aF-328.308808815663
aF-328.22242936813683
aF-328.19638224781323
aF-328.1537919748492
aF-328.03042983809644
aF-328.01041100717924
aF-327.91392925942495
aF-327.87235248859446
aF-327.8545801186214
aF-327.8467886751547
aF-327.8410020233794
aF-327.83648030895205
aF-327.83509689579125
aF-327.7523876946265
aF-327.7188904357499
aF-327.68022772584277
aF-327.598458084387
aF-327.55310692660606
aF-327.54116923802775
aF-327.5258598208091
aF-327.5158410528231
aF-327.488121465857
aF-327.4479529148192
aF-327.4385606168543
aF-327.3892266768954
aF-327.37247962782567
aF-327.3540553306396
aF-327.34842062650864
aF-327.3378413681167
aF-327.2982331786737
aF-327.2667003576337
aF-327.24463553343384
aF-327.242104874669
aF-327.2108679955493
aF-327.19263814218726
aF-327.1900835985602
aF-327.18781993439194
aF-327.1789589090503
aF-327.17772037506415
aF-327.13779582341584
aF-327.1340618123459
aF-327.13331676353573
aF-327.13331676353573
aF-327.13209394933955
aF-327.125338668812
aF-327.12353004485163
aF-327.12353004484896
aF-327.12353004484896
aF-327.1214769948068
aF-327.1156593254615
aF-327.1116021580356
aF-327.1032540700566
aF-327.09349962438085
aF-327.0901205533096
aF-327.08451135725454
aF-327.08132685446714
aF-327.07520731557844
aF-327.07134434391793
aF-327.07013904599853
aF-327.0695362713614
aF-327.06940643819314
aF-327.06904981800545
aF-327.0677448948808
aF-327.06730140808327
aF-327.06730140808327
aF-327.0671629084017
aF-327.0671629084017
aF-327.0667913048099
aF-327.06665197960314
aF-327.066564429603
aF-327.0652809951044
aF-327.06413723176416
aF-327.06398735571537
aF-327.06398735571537
aF-327.06398735571537
aF-327.06398735571537
aF-327.06398735571537
aF-327.06398735571537
aF-327.06398735571537
aF-327.06398735571537
aF-327.06398735571537
aF-327.06398735571537
aF-327.06398735571537
aF-327.06398735571537
aF-327.06398735571537
aF-327.06398735571537
aF-327.06398735571537
aF-327.06398735571537
aF-327.06398735571537
aF-327.06398735571537
aF-327.06398735571537
aF-327.06398735571537
aF-327.06398735571537
aF-327.06398735571537
aF-327.06398735571537
aF-327.06398735571537
aF-327.06398735571537
aa(lp41
F-1219.0
aF-1219.0
aF-1219.0
aF-1123.118012667862
aF-1123.0
aF-1123.0
aF-986.0
aF-986.0
aF-986.0
aF-980.0030103540404
aF-746.2363115438253
aF-745.519647988839
aF-745.0541942228633
aF-642.868195659018
aF-616.3633708064094
aF-616.1087412249755
aF-615.718367637918
aF-587.9587133976755
aF-542.9403780053163
aF-542.4673299639746
aF-528.6870607977036
aF-518.8054658377338
aF-512.4679040678097
aF-510.4005398426888
aF-505.5198934780971
aF-491.9676661560916
aF-483.1421909892641
aF-472.46346930860426
aF-458.6807150070851
aF-450.8693682778581
aF-444.1517237065798
aF-435.53190133267344
aF-430.647447669604
aF-428.3862902991132
aF-410.46465261430535
aF-405.01288042299444
aF-400.8422983763364
aF-395.6199359460173
aF-388.3731353599941
aF-381.4446581645629
aF-357.0786363635151
aF-350.727276695025
aF-347.1867250294618
aF-344.6243817820404
aF-341.8896857614454
aF-341.3560900998226
aF-337.6887244802393
aF-329.6722811658826
aF-326.0539910786662
aF-324.68659094953597
aF-322.0553578434174
aF-319.3495975810941
aF-315.22673964388974
aF-314.2797736970516
aF-312.2902955570189
aF-308.67865203438896
aF-308.06359954376944
aF-307.0390934690294
aF-304.72969146036377
aF-298.1569375830517
aF-291.5655113396328
aF-288.09635101659285
aF-286.98133349380964
aF-286.31205693388745
aF-285.2716627334372
aF-282.6407523755934
aF-277.1091824818601
aF-276.0365162525783
aF-273.54367524577424
aF-272.3476949883864
aF-271.06179091347667
aF-270.6127401605834
aF-269.5125844649282
aF-268.019096151482
aF-266.9714240042022
aF-263.6775997163612
aF-261.86840852553263
aF-260.8188570484191
aF-260.19739957932825
aF-259.5981990916235
aF-257.97448292144327
aF-253.52287566132708
aF-251.61344091305847
aF-249.78306365357417
aF-248.38274035662928
aF-247.56532557852944
aF-247.3078213056025
aF-246.81989044567206
aF-245.9466518731807
aF-245.71569988281652
aF-245.1733140900394
aF-244.95150734633157
aF-244.65225014106042
aF-244.5253661983963
aF-244.4563556786201
aF-244.26308396325098
aF-242.3961406311811
aF-240.808003772462
aF-240.14363087931855
aF-239.34380980008933
aF-237.401777998797
aF-236.78572506228164
aF-234.7975041738343
aF-234.0741845253473
aF-233.71976106485175
aF-233.40074961905765
aF-233.33007622868743
aF-231.27071979661443
aF-229.854372967325
aF-229.15212689075273
aF-229.06445521736023
aF-228.97270338838933
aF-228.51836383417606
aF-228.31812949398892
aF-228.0435564011992
aF-227.89985285545853
aF-227.69894572725778
aF-227.62289356180744
aF-227.56585661330817
aF-227.44281173050535
aF-227.24718922971473
aF-226.99325057483057
aF-226.73549341858967
aF-226.4726437370719
aF-226.3960258461556
aF-226.35484827659997
aF-226.31277919460393
aF-226.04622846240426
aF-225.9846566798519
aF-225.91706711509718
aF-225.75201033269857
aF-225.6024133989929
aF-225.38733002066212
aF-225.30914657461693
aF-225.23004733832286
aF-225.1565334469636
aF-224.64893327825024
aF-224.46779306544587
aF-224.30242739969518
aF-223.99610591119404
aF-223.96692757191772
aF-223.95129046887263
aF-223.91748497515636
aF-223.69933359654382
aF-223.64980885050608
aF-223.5970699323837
aF-223.25302013637742
aF-222.43656665978287
aF-222.34714208285746
aF-222.3206773632316
aF-222.3080940423313
aF-222.2885268645941
aF-222.2457726732239
aF-222.15378380366468
aF-222.12144355629368
aF-222.08831362661996
aF-222.06050679390017
aF-222.0019514701677
aF-221.98380220620106
aF-221.94971021595688
aF-221.8794285694295
aF-221.65100119917705
aF-221.56547488523466
aF-221.31755280684217
aF-221.2765619829235
aF-221.26791726084576
aF-221.25538373843202
aF-221.13679545192593
aF-221.07975478033347
aF-221.01980303694648
aF-220.97918892985004
aF-220.8508124405791
aF-220.83702510553596
aF-220.8128574522296
aF-220.8011007077383
aF-220.79156529976524
aF-220.72688831770859
aF-220.4880830811139
aF-220.35175196985978
aF-220.21243254776203
aF-220.17682976698617
aF-220.14515736660283
aF-220.12643771620685
aF-220.12340358443845
aF-220.085913371732
aF-219.70308640077707
aF-219.45675436379767
aF-219.45675436379767
aF-219.44081455650502
aF-219.43403737899405
aF-219.3351185910736
aF-219.27119221039732
aF-219.13617268854887
aF-219.1049409946246
aF-219.1049409946246
aF-218.9044371078232
aF-218.8886319877729
aF-218.874778010682
aF-218.72277785471124
aF-218.6579541417836
aF-218.64730791919186
aF-218.63952273037063
aF-218.6246269531162
aF-218.61304681638754
aF-218.55511156156254
aF-218.50356940863733
aF-218.4776648864924
aF-218.43876174676453
aF-218.42172515535756
aF-218.3212568110342
aF-218.30138110056092
aF-218.275585456605
aF-218.22204622884567
aF-218.13624649720214
aF-217.98211374765802
aF-217.95503761105124
aF-217.93677596808934
aF-217.9192661973815
aF-217.90861953924244
aF-217.89868028690032
aF-217.8909954799132
aF-217.80758527777678
aF-217.80024375769
aF-217.79848970429234
aF-217.79848970429234
aF-217.791865845959
aF-217.791865845959
aF-217.78105942175677
aF-217.77166948298373
aF-217.74786509558015
aF-217.7227012866451
aF-217.70428222256163
aF-217.70247933853693
aF-217.62127689644313
aF-217.58493429079536
aF-217.57631631670117
aF-217.56904203368182
aF-217.56341936433583
aF-217.55046609933066
aF-217.5296765801406
aF-217.52067138583055
aF-217.51612736871874
aF-217.49212313538374
aF-217.44402525711138
aF-217.44402525711138
aF-217.44402525711138
aF-217.44348998053317
aF-217.42976883577637
aF-217.42976883577637
aF-217.42976883577637
aF-217.4184248274673
aF-217.4184248274673
aF-217.4183716512287
aF-217.4130213264476
aF-217.4130015123152
aF-217.4114170523949
aF-217.40796966627718
aF-217.40796966627718
aF-217.40796966627718
aF-217.40796966627718
aF-217.40796966627718
aF-217.40796966627718
aF-217.40796966627718
aF-217.40796966627718
aF-217.40796966627718
aF-217.40796966627718
aF-217.40796966627718
aF-217.40796966627718
aF-217.40796966627718
aF-217.39263006920478
aF-217.3902728195181
aF-217.3902728195181
aF-217.38582752581337
aF-217.38582752581337
aF-217.38582752581337
aF-217.38582752581337
aF-217.38582752581337
aF-217.38582752581337
aF-217.38537301629083
aF-217.38537301629083
aF-217.38537301629083
aF-217.38537301629083
aF-217.38537301629083
aF-217.38537301629083
aF-217.38537301629083
aF-217.38427974969719
aF-217.38254624458173
aF-217.38145009505735
aF-217.38145009505735
aF-217.37975696470852
aF-217.37975696470852
aF-217.37975696470852
aF-217.37975696470852
aF-217.37975696470852
aF-217.37975696470852
aF-217.37975696470852
aF-217.37810842731946
aF-217.37810842731946
aF-217.37649067984287
aF-217.37649067984287
aF-217.37539411796038
aF-217.374361615263
aF-217.374361615263
aF-217.37351323997467
aF-217.37351323997467
aF-217.37351323997467
aF-217.37351323997467
aF-217.37228971016916
aF-217.37228971016916
aF-217.36990479070053
aF-217.36990479070053
aF-217.36278094921536
aF-217.36278094921536
aF-217.36278094921536
aF-217.35945012356245
aF-217.35191217353997
aF-217.35119701107672
aF-217.3475368382168
aF-217.3475368382168
aF-217.3475368382168
aF-217.3453001920227
aF-217.34293211316455
aF-217.34293211316455
aF-217.34293211316455
aF-217.3423886598465
aF-217.3423886598465
aF-217.34235017514274
aF-217.3351612873678
aF-217.3351612873678
aF-217.33040940898061
aF-217.32872203494054
aF-217.32872203494054
aF-217.3260502986769
aF-217.3226560077213
aF-217.32142933417097
aF-217.32142933417097
aF-217.3200565614498
aF-217.3200156984139
aF-217.30640916401012
aF-217.30546096410623
aF-217.30390608865127
aF-217.3011812899676
aF-217.294827738675
aF-217.294827738675
aF-217.29393719265408
aF-217.29393719265408
aF-217.29393719265408
aF-217.28869520670983
aF-217.28869520670983
aF-217.28514389211492
aF-217.28514389211492
aF-217.27525363817364
aF-217.27374741328148
aF-217.27374741328148
aF-217.27374741328111
aF-217.27374741328111
aF-217.27374741328148
aF-217.2736440549693
aF-217.2736440549693
aF-217.273644054969
aF-217.273644054969
aF-217.27324102556256
aF-217.27324102556256
aF-217.27264596252832
aF-217.27264596252832
aF-217.27217210128472
aF-217.27217210128472
aF-217.2721721012849
aF-217.2721721012849
aF-217.27199311679323
aF-217.27199311679294
aF-217.27192457266923
aF-217.27186183285716
aF-217.27186183285716
aF-217.27186183285716
aF-217.27186183285716
aF-217.27186183285716
aF-217.27186183285716
aF-217.27186183285716
aF-217.27186183285716
aF-217.27186183285716
aF-217.27186183285716
aF-217.27186183285716
aF-217.27186183285716
aF-217.27186183285716
aF-217.27186183285716
aF-217.27186183285716
aF-217.27186183285716
aF-217.27186183285716
aF-217.27186183285716
aF-217.27186183285716
aF-217.27186183285716
aa(lp42
F-1851.0
aF-1851.0
aF-1851.0
aF-1692.3474375206035
aF-1692.3474375206035
aF-1692.251032125664
aF-1590.000087660179
aF-1587.8578750525494
aF-1587.8578750525494
aF-1292.5730617894362
aF-1166.255885050747
aF-1076.1092288971668
aF-1066.3869920348575
aF-1061.5807938673136
aF-995.1552126483235
aF-944.2019877322226
aF-920.9075411058211
aF-887.8141470503805
aF-820.9678534634157
aF-791.8756441033746
aF-769.1648713963642
aF-749.8645561372304
aF-747.250570188099
aF-745.0489000413033
aF-718.4044021673097
aF-707.9551125145146
aF-696.3667827798109
aF-688.6137052264628
aF-679.444863699887
aF-665.3815873453392
aF-661.0592311850963
aF-652.586275837501
aF-632.6418339957196
aF-625.8401555654025
aF-621.5831819053883
aF-612.5681515605305
aF-610.6490363309745
aF-602.3715081979761
aF-599.2441281606551
aF-596.3216024494138
aF-593.0977021316257
aF-586.4756798976396
aF-585.5211060359876
aF-582.9061437879158
aF-582.5076093085994
aF-580.5050237923643
aF-573.4864876306114
aF-564.9901340723014
aF-556.8502054711305
aF-553.048358359664
aF-550.3106782268771
aF-544.9249610303783
aF-543.7965186665976
aF-539.9188543658121
aF-529.9587628079754
aF-528.1872011277712
aF-524.8472105487359
aF-523.427091387574
aF-522.0469402214219
aF-519.608255088171
aF-518.2362991521651
aF-513.9056489584807
aF-512.5498213678804
aF-511.2851321608508
aF-510.97121094719233
aF-507.6799237107086
aF-505.86908797091445
aF-505.56271466104823
aF-505.16274176748686
aF-504.4361726052643
aF-504.15844999333945
aF-503.67809248631085
aF-501.1274152045417
aF-498.49857794759083
aF-497.12888152070263
aF-495.56187184833254
aF-493.9487494310392
aF-493.72666946621587
aF-493.373663775639
aF-492.6159505508633
aF-492.5545309758069
aF-491.8288182904857
aF-491.14393144097886
aF-490.50967936150033
aF-490.2595237854116
aF-489.48615260403346
aF-488.84916225219416
aF-488.29030555712
aF-487.2247203151619
aF-486.83564833385003
aF-486.4368450336983
aF-486.28967382307593
aF-485.22125272684633
aF-484.76328051395393
aF-484.1246338403297
aF-483.9273440691073
aF-483.7158669439744
aF-482.5219706052783
aF-481.9559638491012
aF-480.4628600937135
aF-480.4046130216748
aF-480.08281330924416
aF-479.6742643840531
aF-479.38548999988575
aF-479.3119512664969
aF-478.98986933011355
aF-478.93609710890934
aF-478.8015912610156
aF-478.6047510717225
aF-478.1724100791289
aF-477.8055459345869
aF-477.5160496045333
aF-477.5160496045333
aF-477.1871356078674
aF-477.1871356078674
aF-476.6260924787347
aF-476.5658768462839
aF-476.42512450534343
aF-476.17022344986185
aF-476.1159906652233
aF-476.08098424611285
aF-476.04919851013653
aF-475.80379737911113
aF-475.6869467104556
aF-475.6073522060535
aF-475.56329419776046
aF-475.5561322806008
aF-475.52378165276986
aF-475.44699764309314
aF-475.3925969512653
aF-475.3167397783098
aF-475.24880961070374
aF-475.2055921176475
aF-475.1844667698525
aF-474.98779954092146
aF-474.9749423495393
aF-474.5289564035913
aF-474.42582512037137
aF-474.39893858412637
aF-474.3781074258395
aF-474.36485978148534
aF-474.32774856233914
aF-474.2794519819236
aF-474.2714866560839
aF-474.21780777663946
aF-474.2091986541497
aF-474.2055115547484
aF-474.18848472691167
aF-474.18848472691167
aF-474.02466468118524
aF-473.9897620058041
aF-473.9424865555936
aF-473.9424865555936
aF-473.9359601235643
aF-473.90664177544505
aF-473.90556941257057
aF-473.8836696219142
aF-473.86304475583773
aF-473.8399163171551
aF-473.75741369897025
aF-473.75028394729816
aF-473.74314415741617
aF-473.6567192998145
aF-473.6567192998145
aF-473.6022301347133
aF-473.59634016880494
aF-473.5884281594335
aF-473.5502394985895
aF-473.5502394985895
aF-473.4375065277869
aF-473.4375065277869
aF-473.42362281186615
aF-473.4030407493857
aF-473.3534813824101
aF-473.2973894584606
aF-473.25449525746365
aF-473.24459233443065
aF-473.2338122781253
aF-473.2338122781253
aF-473.2306854176801
aF-473.2296587598971
aF-473.2296587598971
aF-473.2296587598971
aF-473.2296587598971
aF-473.20145042321064
aF-473.1721646030328
aF-473.1509598901015
aF-473.1197791618762
aF-473.1197791618762
aF-473.1053119386443
aF-473.10074431192913
aF-473.10074431192913
aF-473.0988819579205
aF-473.0967454940251
aF-473.0754850069421
aF-473.07529742501737
aF-473.0527295581947
aF-473.04586520069586
aF-473.04586520069586
aF-473.0358605358203
aF-473.0257048974962
aF-473.0180332101762
aF-473.0144322115568
aF-473.0144322115568
aF-472.9989171033189
aF-472.97863116736204
aF-472.9413045580089
aF-472.93536701606183
aF-472.92468585724527
aF-472.9110961251007
aF-472.9094898400946
aF-472.9006584500115
aF-472.8936569842793
aF-472.8452448852348
aF-472.828653555007
aF-472.828653555007
aF-472.81987044360267
aF-472.7942971861764
aF-472.7819446606472
aF-472.7819446606472
aF-472.7702379991316
aF-472.7702379991316
aF-472.7677356007309
aF-472.7677356007309
aF-472.7565964054832
aF-472.7565964054832
aF-472.75261082686796
aF-472.7524729402696
aF-472.7524729402696
aF-472.75219318129143
aF-472.7447335901056
aF-472.7307627591179
aF-472.7307627591179
aF-472.7288758594934
aF-472.7288758594934
aF-472.72871042210414
aF-472.7218657546084
aF-472.7182102379239
aF-472.71169811479785
aF-472.70337399793164
aF-472.70313841860747
aF-472.6961194050611
aF-472.6961194050611
aF-472.6950722270183
aF-472.6899906527495
aF-472.68716965978604
aF-472.68716965978604
aF-472.68716965978604
aF-472.68714926367085
aF-472.68714926367085
aF-472.6867472675145
aF-472.6852295707962
aF-472.6852295707962
aF-472.68314069806496
aF-472.68196183504404
aF-472.68005269434417
aF-472.67855286769856
aF-472.67855286769856
aF-472.67774907702454
aF-472.67606676317774
aF-472.67606676317774
aF-472.67563844450734
aF-472.6726886531175
aF-472.6724581186255
aF-472.67224656562837
aF-472.6722029964992
aF-472.6722029964989
aF-472.6721336892654
aF-472.6721336892654
aF-472.67213159882135
aF-472.67213159882135
aF-472.6720558336143
aF-472.67190339870893
aF-472.6717471390417
aF-472.6714709066257
aF-472.6714709066257
aF-472.67138515998283
aF-472.6712382023214
aF-472.67070348386267
aF-472.67070348386267
aF-472.6703611005078
aF-472.67021826693957
aF-472.67021826693957
aF-472.6700709982446
aF-472.6700709982448
aF-472.67007099824457
aF-472.67007099824485
aF-472.67007099824485
aF-472.67007099824485
aF-472.67007099824485
aF-472.67007099824485
aF-472.67007099824485
aF-472.67007099824485
aF-472.67007099824485
aF-472.67007099824485
aF-472.67007099824485
aF-472.67007099824485
aF-472.67007099824485
aF-472.67007099824485
aF-472.67007099824485
aF-472.67007099824485
aF-472.67007099824485
aF-472.67007099824485
aF-472.67007099824485
aF-472.67007099824485
aatp43
.