(cnumpy.core.multiarray
_reconstruct
p0
(cnumpy
ndarray
p1
(I0
tp2
S'b'
p3
tp4
Rp5
(I1
(I5
I3
I2
tp6
cnumpy
dtype
p7
(S'f8'
p8
I0
I1
tp9
Rp10
(I3
S'<'
p11
NNNI-1
I-1
I0
tp12
bI00
S"i\xc1&\xda\xe73\x82\xc0)cI+\xd4\x90s\xc0[\x0f\xf3\xc6\xc46\x82\xc0\xa8\xd5\x96\xaaV\xefs\xc0e\xdf+\x01;r|\xc0\\R\x01&\xc1\x07h\xc0'\xe0\x8few-\x82\xc0\xc0\xa2\xfe\x9bOsp\xc07\x0f\xe7mL.\x82\xc0\tX\xa2\x05<Dp\xc0e\xdf+\x01;r|\xc0\\R\x01&\xc1\x07h\xc0\x84\xeb\xae\xe0@*\x82\xc0\x91v\xe7 \x98\xc4o\xc0{\xf2O\xf9\xc9F\x82\xc0_\x13EnX'o\xc0e\xdf+\x01;r|\xc0\\R\x01&\xc1\x07h\xc0\x02\xac\xb3*\xf6\xe7\x81\xc0\xa2C\x8dA\x96cp\xc0\xfd\x11<hk\xe4\x81\xc0\xf0<\xc0).xp\xc0e\xdf+\x01;r|\xc0\\R\x01&\xc1\x07h\xc0=\xee\x8d\x99\xa4\xed\x81\xc0%Y )\xd9\xb1o\xc0M\x10\x93\xf1\xdc\xf1\x81\xc0r\x9bK\x87\x8bho\xc0e\xdf+\x01;r|\xc0\\R\x01&\xc1\x07h\xc0"
p13
tp14
bg0
(g1
(I0
tp15
g3
tp16
Rp17
(I1
(I5
I3
I2
tp18
g10
I00
S'\x00\x00\x00\x00/o\xd0?\x00\x00\x00\x00(\x9c\xcf?\x00\x00\x00\x00w1\xd7?\x00\x00\x00\x806\x10\xea?\x00\x00\x00\x00p\xe4\xaa?\x00\x00\x00\x00tG\xb3?\x00\x00\x00<2\xa62@\x00\x00\x00\x00 ~\xe4?\x00\x00\x00\x00\xe83\xef?\x00\x00\x00@\xb5{\xf4?\x00\x00\x00\x00\x08\xbf\xae?\x00\x00\x00\x00x\xd0\xb4?\x00\x00\x00\xf0\xaa@(@\x00\x00\x00\x80\x04E\xf9?\x00\x00\x00`\t\x9d\x0e@\x00\x00\x00 \x13m\x00@\x00\x00\x00\x00\x08r\xb0?\x00\x00\x00\x00\xc4\xc9\xb1?\x00\x00\x00\xa2\xb8gN@\x00\x00\x00\x10\xdc\xb1"@\x00\x00\x00 {\x9c @\x00\x00\x00\xe0\xf9\xd7\t@\x00\x00\x00\x00\xd4\xe2\xb3?\x00\x00\x00\x00\x10\r\xb3?\x00\x00\x00x\x06|U@\x00\x00\x00p\x97K\x1a@\x00\x00\x00@\xb8\xe2\x1f@\x00\x00\x00p\x10T\x16@\x00\x00\x00\x00\x90b\xa8?\x00\x00\x00\x00\xf0W\xb1?'
p19
tp20
bg0
(g1
(I0
tp21
g3
tp22
Rp23
(I1
(I2
tp24
g10
I00
S'!\x1e\xc3M\x1d\xc4\x81\xc0\xe2\xed\xe6\x83\xb2\xcel\xc0'
p25
tp26
bg0
(g1
(I0
tp27
g3
tp28
Rp29
(I1
(I2
tp30
g10
I00
S'\x00\x00\x00\xac,i1@\x00\x00\x00\xb0\xf5C"@'
p31
tp32
b(lp33
(lp34
F-1748.0
aF-1748.0
aF-1748.0
aF-1703.0
aF-1703.0
aF-1703.0
aF-1618.0
aF-1618.0
aF-1618.0
aF-1569.0856024756317
aF-1137.7884458136077
aF-1003.1265845714563
aF-976.7212092240279
aF-959.5282912264056
aF-939.2032917187859
aF-930.5051352625543
aF-899.5998828400632
aF-894.7638561896368
aF-869.1043043957562
aF-864.1575051118915
aF-853.0735578475659
aF-821.6670811490151
aF-812.4164124036492
aF-810.8873091376037
aF-809.9424093839198
aF-797.2058298505707
aF-785.2576584536591
aF-783.3134204706505
aF-760.8688308377169
aF-758.1957251307895
aF-743.6359577845698
aF-722.2454458558533
aF-707.9586654487313
aF-707.7154987074795
aF-705.6387687752061
aF-699.6151397134066
aF-680.8560818377383
aF-655.303739942705
aF-650.3838779430944
aF-645.0977619601721
aF-643.9738773627812
aF-641.928281026984
aF-616.7864005594562
aF-613.5868428592271
aF-609.0566158499103
aF-606.8227931902716
aF-601.8990979646318
aF-601.1911105212521
aF-600.0105282903428
aF-591.2468673361182
aF-589.4453387544723
aF-589.2842972911601
aF-580.9670503789474
aF-577.7001261846646
aF-577.5110477866195
aF-577.2078155202184
aF-577.0014555310509
aF-576.727322108916
aF-575.7801678257273
aF-573.5138220205639
aF-573.0568469100297
aF-572.6470543016302
aF-571.3531324840877
aF-570.2990730789066
aF-570.1101593390838
aF-569.8455933595396
aF-569.4783086092017
aF-569.40466258833
aF-569.2731435851932
aF-568.9232009366683
aF-568.8958486611854
aF-568.7794748546304
aF-568.7520866874769
aF-568.7141286225404
aF-568.6811822159684
aF-568.5832792790483
aF-568.5832745341747
aF-568.5660588801313
aF-568.5432645983948
aF-568.5143084758348
aF-568.5143084758348
aF-568.5143084758348
aF-568.5143084758348
aF-568.5143084758348
aF-568.5143084758348
aF-568.5143084758348
aF-568.5143084758348
aF-568.5143084758348
aF-568.5143084758348
aF-568.5143084758348
aF-568.5143084758348
aF-568.5143084758348
aF-568.5143084758348
aF-568.5143084758348
aF-568.5143084758348
aF-568.5143084758348
aF-568.5143084758348
aF-568.5143084758348
aF-568.5143084758348
aF-568.5143084758348
aF-568.5143084758348
aF-568.5143084758348
aF-568.5143084758348
aF-568.5143084758348
aF-568.5143084758348
aF-568.5143084758348
aF-568.5143084758348
aF-568.5143084758348
aF-568.5143084758348
aF-568.5143084758348
aF-568.5143084758348
aa(lp35
F-1078.0
aF-1078.0
aF-1078.0
aF-731.3982682669393
aF-685.0
aF-685.0
aF-685.0
aF-646.0
aF-646.0
aF-646.0
aF-619.8390969801728
aF-482.91020732234017
aF-482.91020732234017
aF-482.9102073223403
aF-474.4248855921065
aF-453.5573947195667
aF-432.1830137680305
aF-393.63452231827233
aF-380.39123765173946
aF-371.7428225742622
aF-335.8365108282119
aF-334.44456442893136
aF-309.0091377615002
aF-302.7661180169323
aF-291.1586565662241
aF-274.4850230565
aF-273.10423814970454
aF-271.58877858071065
aF-269.6261394073103
aF-247.49418080447714
aF-244.65263419837027
aF-240.20762200419918
aF-237.16203147688884
aF-234.92699630420884
aF-231.80989459842274
aF-231.65536108642524
aF-231.29251681941193
aF-230.77783205559857
aF-230.56478607866487
aF-230.56183170667666
aF-230.45929141143193
aF-230.45929141143193
aF-230.45929141143193
aF-230.45929141143193
aF-230.45929141143193
aF-230.45929141143193
aF-230.45929141143193
aF-230.45929141143193
aF-230.45929141143193
aF-230.45929141143193
aF-230.45929141143193
aF-230.45929141143193
aF-230.45929141143193
aF-230.45929141143193
aF-230.45929141143193
aF-230.45929141143193
aF-230.45929141143193
aF-230.45929141143193
aF-230.45929141143193
aF-230.45929141143193
aF-230.45929141143193
aF-230.45929141143193
aF-230.45929141143193
aF-230.45929141143193
aF-230.45929141143193
aF-230.45929141143193
aF-230.45929141143193
aF-230.45929141143193
aF-230.45929141143193
aF-230.45929141143193
aF-230.45929141143193
aF-230.45929141143193
aF-230.45929141143193
aF-230.45929141143193
aF-230.45929141143193
aF-230.45929141143193
aF-230.45929141143193
aF-230.45929141143193
aF-230.45929141143193
aF-230.45929141143193
aF-230.45929141143193
aF-230.45929141143193
aF-230.45929141143193
aF-230.45929141143193
aF-230.45929141143193
aF-230.45929141143193
aF-230.45929141143193
aF-230.45929141143193
aF-230.45929141143193
aF-230.45929141143193
aF-230.45929141143193
aF-230.45929141143193
aF-230.45929141143193
aF-230.45929141143193
aF-230.45929141143193
aF-230.45929141143193
aF-230.45929141143193
aF-230.45929141143193
aF-230.45929141143193
aF-230.45929141143193
aF-230.45929141143193
aatp36
.