(cnumpy.core.multiarray
_reconstruct
p0
(cnumpy
ndarray
p1
(I0
tp2
S'b'
p3
tp4
Rp5
(I1
(I10
I3
I2
tp6
cnumpy
dtype
p7
(S'f8'
p8
I0
I1
tp9
Rp10
(I3
S'<'
p11
NNNI-1
I-1
I0
tp12
bI00
S'\x00\x00\x00\x00\x00\x00\x00\x00\x00\x00\x00\x00\x00\x00\x00\x00\x00\x00\x00\x00\x00\x00\x00\x00\x00\x00\x00\x00\x00\x00\x00\x00\x00\x00\x00\x00\x00\x00\x00\x00\x00\x00\x00\x00\x00\x00\x00\x00\x00\x00\x00\x00\x00\x00\x00\x00\x00\x00\x00\x00\x00\x00\x00\x00\x00\x00\x00\x00\x00\x00\x00\x00\x00\x00\x00\x00\x00\x00\x00\x00\x00\x00\x00\x00\x00\x00\x00\x00\x00\x00\x00\x00\x00\x00\x00\x00\x00\x00\x00\x00\x00\x00\x00\x00\x00\x00\x00\x00\x00\x00\x00\x00\x00\x00\x00\x00\x00\x00\x00\x00\x00\x00\x00\x00\x00\x00\x00\x00\x00\x00\x00\x00\x00\x00\x00\x00\x00\x00\x00\x00\x00\x00\x00\x00\x00\x00\x00\x00\x00\x00\x00\x00\x00\x00\x00\x00\x00\x00\x00\x00\x00\x00\x00\x00\x00\x00\x00\x00\x00\x00\x00\x00\x00\x00\x00\x00\x00\x00\x00\x00\x00\x00\x00\x00\x00\x00\x00\x00\x00\x00\x00\x00\x00\x00\x00\x00\x00\x00\x00\x00\x00\x00\x00\x00\x00\x00\x00\x00\x00\x00\x00\x00\x00\x00\x00\x00\x00\x00\x00\x00\x00\x00\x00\x00\x00\x00\x00\x00\x00\x00\x00\x00\x00\x00\x00\x00\x00\x00\x00\x00\x00\x00\x00\x00\x00\x00\x00\x00\x00\x00\x00\x00\x00\x00\x00\x00\x00\x00\x00\x00\x00\x00\x00\x00\x00\x00\x00\x00\x00\x00\x00\x00\x00\x00\x00\x00\x00\x00\x00\x00\x00\x00\x00\x00\x00\x00\x00\x00\x00\x00\x00\x00\x00\x00\x00\x00\x00\x00\x00\x00\x00\x00\x00\x00\x00\x00\x00\x00\x00\x00\x00\x00\x00\x00\x00\x00\x00\x00\x00\x00\x00\x00\x00\x00\x00\x00\x00\x00\x00\x00\x00\x00\x00\x00\x00\x00\x00\x00\x00\x00\x00\x00\x00\x00\x00\x00\x00\x00\x00\x00\x00\x00\x00\x00\x00\x00\x00\x00\x00\x00\x00\x00\x00\x00\x00\x00\x00\x00\x00\x00\x00\x00\x00\x00\x00\x00\x00\x00\x00\x00\x00\x00\x00\x00\x00\x00\x00\x00\x00\x00\x00\x00\x00\x00\x00\x00\x00\x00\x00\x00\x00\x00\x00\x00\x00\x00\x00\x00\x00\x00\x00\x00\x00\x00\x00\x00\x00\x00\x00\x00\x00\x00\x00\x00\x00\x00\x00\x00\x00\x00\x00\x00\x00\x00\x00\x00\x00\x00\x00\x00\x00\x00\x00\x00\x00\x00\x00\x00\x00\x00\x00\x00\x00\x00\x00\x00\x00\x00\x00\x00\x00\x00\x00\x00\x00\x00\x00\x00\x00\x00\x00\x00\x00\x00\x00\x00\x00\x00\x00\x00'
p13
tp14
bg0
(g1
(I0
tp15
g3
tp16
Rp17
(I1
(I10
I3
I2
tp18
g10
I00
S'\x00\x00\x00\x00\x00\x00\x00\x00\x00\x00\x00\x00\x00\x00\x00\x00\x00\x00\x00\x00\x00\x00\x00\x00\x00\x00\x00\x00\x00\x00\x00\x00\x00\x00\x00\x00\x00\x00\x00\x00\x00\x00\x00\x00\x00\x00\x00\x00\x00\x00\x00\x00\x00\x00\x00\x00\x00\x00\x00\x00\x00\x00\x00\x00\x00\x00\x00\x00\x00\x00\x00\x00\x00\x00\x00\x00\x00\x00\x00\x00\x00\x00\x00\x00\x00\x00\x00\x00\x00\x00\x00\x00\x00\x00\x00\x00\x00\x00\x00\x00\x00\x00\x00\x00\x00\x00\x00\x00\x00\x00\x00\x00\x00\x00\x00\x00\x00\x00\x00\x00\x00\x00\x00\x00\x00\x00\x00\x00\x00\x00\x00\x00\x00\x00\x00\x00\x00\x00\x00\x00\x00\x00\x00\x00\x00\x00\x00\x00\x00\x00\x00\x00\x00\x00\x00\x00\x00\x00\x00\x00\x00\x00\x00\x00\x00\x00\x00\x00\x00\x00\x00\x00\x00\x00\x00\x00\x00\x00\x00\x00\x00\x00\x00\x00\x00\x00\x00\x00\x00\x00\x00\x00\x00\x00\x00\x00\x00\x00\x00\x00\x00\x00\x00\x00\x00\x00\x00\x00\x00\x00\x00\x00\x00\x00\x00\x00\x00\x00\x00\x00\x00\x00\x00\x00\x00\x00\x00\x00\x00\x00\x00\x00\x00\x00\x00\x00\x00\x00\x00\x00\x00\x00\x00\x00\x00\x00\x00\x00\x00\x00\x00\x00\x00\x00\x00\x00\x00\x00\x00\x00\x00\x00\x00\x00\x00\x00\x00\x00\x00\x00\x00\x00\x00\x00\x00\x00\x00\x00\x00\x00\x00\x00\x00\x00\x00\x00\x00\x00\x00\x00\x00\x00\x00\x00\x00\x00\x00\x00\x00\x00\x00\x00\x00\x00\x00\x00\x00\x00\x00\x00\x00\x00\x00\x00\x00\x00\x00\x00\x00\x00\x00\x00\x00\x00\x00\x00\x00\x00\x00\x00\x00\x00\x00\x00\x00\x00\x00\x00\x00\x00\x00\x00\x00\x00\x00\x00\x00\x00\x00\x00\x00\x00\x00\x00\x00\x00\x00\x00\x00\x00\x00\x00\x00\x00\x00\x00\x00\x00\x00\x00\x00\x00\x00\x00\x00\x00\x00\x00\x00\x00\x00\x00\x00\x00\x00\x00\x00\x00\x00\x00\x00\x00\x00\x00\x00\x00\x00\x00\x00\x00\x00\x00\x00\x00\x00\x00\x00\x00\x00\x00\x00\x00\x00\x00\x00\x00\x00\x00\x00\x00\x00\x00\x00\x00\x00\x00\x00\x00\x00\x00\x00\x00\x00\x00\x00\x00\x00\x00\x00\x00\x00\x00\x00\x00\x00\x00\x00\x00\x00\x00\x00\x00\x00\x00\x00\x00\x00\x00\x00\x00\x00\x00\x00\x00\x00\x00\x00\x00\x00\x00\x00\x00\x00\x00\x00\x00\x00\x00\x00\x00'
p19
tp20
bg0
(g1
(I0
tp21
g3
tp22
Rp23
(I1
(I2
tp24
g10
I00
S'\xa2!G\xcb:\xabi\xc0\xafkxm\x11\xb3v\xc0'
p25
tp26
bg0
(g1
(I0
tp27
g3
tp28
Rp29
(I1
(I2
tp30
g10
I00
S'\x00\x00\x00\x18\x05\xd4Y@\x00\x00\x80/w\xfej@'
p31
tp32
b(lp33
(lp34
F-1440.0
aF-1440.0
aF-1440.0
aF-1046.3856558539237
aF-1031.0
aF-1031.0
aF-1031.0
aF-995.0
aF-995.0
aF-995.0
aF-946.3946492844887
aF-755.0
aF-755.0
aF-755.0
aF-678.066381180319
aF-656.1088318192336
aF-656.0
aF-656.0
aF-627.2637433507764
aF-585.9051306531969
aF-573.6201505943257
aF-571.331700223055
aF-562.675222034684
aF-551.6875382203195
aF-542.5264807833455
aF-516.0993645491806
aF-510.11374862657874
aF-498.2782245445825
aF-485.75363098025264
aF-482.8480105269038
aF-471.2168179099422
aF-463.71935714344414
aF-459.33703820133417
aF-455.04987433189564
aF-433.5930171144609
aF-417.93169607560213
aF-392.09060571525157
aF-387.99749446946885
aF-381.71765690348354
aF-374.26628328932884
aF-369.45955828880557
aF-361.5880385400127
aF-345.94723972666407
aF-343.65396701806566
aF-340.1269988716093
aF-337.98139504563323
aF-337.2347484648474
aF-335.12232354523826
aF-326.99702740823386
aF-316.31163956824446
aF-310.68161996451664
aF-302.1687157326519
aF-301.2932829797223
aF-297.85859293538374
aF-292.23381913597495
aF-290.4585643679998
aF-289.99725700356703
aF-288.7084519952776
aF-286.49953826409774
aF-283.51235444696204
aF-280.9828821085366
aF-279.94136716154554
aF-278.160427731691
aF-277.2086510414447
aF-276.50256553338454
aF-273.6614900292637
aF-270.80600804404645
aF-268.971450724347
aF-261.97561306788947
aF-258.46135389126357
aF-255.64755140544668
aF-254.22509873812854
aF-251.83354952845733
aF-250.77963339372027
aF-247.30733037935485
aF-246.608865177609
aF-245.58181029799937
aF-244.87459736980458
aF-244.55391874101952
aF-242.1440576326452
aF-239.95416110965044
aF-239.2375379656806
aF-238.52982144969116
aF-237.17367788090817
aF-234.4491526420518
aF-234.30981357517211
aF-233.79145807666416
aF-232.62552250775965
aF-232.00397519515553
aF-231.73246471275354
aF-230.89596377783758
aF-230.7094196373323
aF-230.31604529482502
aF-229.32706259944987
aF-226.78877143639946
aF-226.08687929557857
aF-225.81066066467884
aF-225.6909578120366
aF-225.56832047486094
aF-224.9196080388447
aF-224.62268722310563
aF-224.25279149635918
aF-224.14920236088673
aF-223.95954879726443
aF-223.59023714624428
aF-222.4912805707383
aF-221.45164631628026
aF-221.2642050421353
aF-221.11808215848734
aF-220.56984852270557
aF-220.0797248086962
aF-219.63678038027217
aF-219.46881188767242
aF-219.44587374744688
aF-219.3745258542049
aF-219.28786151412896
aF-218.77344902634198
aF-218.5923468243872
aF-217.1821399604835
aF-216.98060991060305
aF-216.34554758152555
aF-215.72432368338
aF-214.4771690277703
aF-214.07818276905272
aF-213.91915271919567
aF-213.48214511015698
aF-213.42612243304856
aF-213.2543635494685
aF-213.08510507091185
aF-212.40970782600166
aF-212.34419205128378
aF-212.1903966741824
aF-211.95483580924426
aF-211.790620483217
aF-211.75199790335517
aF-211.6788014924125
aF-211.4109791468465
aF-210.9095047068627
aF-210.70484124830458
aF-210.5672607269964
aF-210.49963216022164
aF-210.40092199897884
aF-210.26237502604042
aF-210.22043873587708
aF-210.1963422092985
aF-210.0483810440383
aF-210.0240154596687
aF-209.60140316451637
aF-209.48842798435055
aF-209.43220279981398
aF-208.94531773019645
aF-208.68536997502943
aF-208.53893368413935
aF-208.52015027138307
aF-208.50263024399368
aF-208.39226609688444
aF-208.37058257077234
aF-208.36626846871545
aF-208.32826811422532
aF-208.32805925970152
aF-208.29321287236195
aF-208.29321287236195
aF-208.29178065478098
aF-207.78112225184245
aF-207.65883557115393
aF-207.62283510855895
aF-207.5238268686202
aF-207.5238268686202
aF-207.35791618567515
aF-207.34046546585984
aF-207.31144602755563
aF-207.20951647554904
aF-207.13711586250145
aF-207.10245666096924
aF-207.0455345844755
aF-207.0455345844755
aF-206.97747704027333
aF-206.82714504445545
aF-206.63532180192811
aF-206.62877255402285
aF-206.37873307823367
aF-206.35747078458166
aF-206.08616206965073
aF-206.08616206965078
aF-206.01444326305483
aF-205.93086553797963
aF-205.9074473430034
aF-205.8821158553892
aF-205.77130959197356
aF-205.77130959197356
aF-205.76716316567376
aF-205.76716316567376
aF-205.7580036057347
aF-205.71482641003783
aF-205.71482641003783
aF-205.71482641003783
aF-205.70630842082423
aF-205.70411213560564
aF-205.70411213560564
aF-205.70411213560564
aF-205.70411213560564
aF-205.7004441835436
aF-205.7004441835436
aF-205.69938311155735
aF-205.69938311155735
aF-205.69786380205124
aF-205.69786380205124
aF-205.69786380205124
aF-205.6800879722836
aF-205.669607142553
aF-205.66936756380673
aF-205.66783482807492
aF-205.66783482807492
aF-205.66053135514946
aF-205.6349155065025
aF-205.63001501369985
aF-205.6227819387397
aF-205.58950394443949
aF-205.56687957518045
aF-205.56687957518045
aF-205.56687957518045
aF-205.56687957518045
aF-205.56687957518045
aF-205.56687957518045
aF-205.54876154644637
aF-205.54238112008457
aF-205.54238112008457
aF-205.54238112008457
aF-205.54238112008457
aF-205.53796449210319
aF-205.53796449210319
aF-205.52898438529925
aF-205.52898438529925
aF-205.5096812595138
aF-205.5096812595138
aF-205.5096812595138
aF-205.5096812595138
aF-205.49989949160155
aF-205.4980585051177
aF-205.4980585051177
aF-205.49655655696594
aF-205.49655655696594
aF-205.49655655696594
aF-205.49655655696594
aF-205.49092996647525
aF-205.47230256470206
aF-205.45461320399863
aF-205.45461320399863
aF-205.44668097719406
aF-205.44668097719406
aF-205.44668097719406
aF-205.44668097719406
aF-205.44668097719406
aF-205.44668097719406
aF-205.44668097719406
aF-205.43792754055042
aF-205.43792754055042
aF-205.43792754055042
aF-205.4367753912678
aF-205.4367753912678
aF-205.4364743318474
aF-205.4310845926703
aF-205.4310845926703
aF-205.41108239223885
aF-205.41108239223885
aF-205.41108239223885
aF-205.40289971831294
aF-205.40289971831294
aF-205.39807882199952
aF-205.39395066311312
aF-205.38704237169793
aF-205.38704237169793
aF-205.38704237169793
aF-205.38704237169793
aF-205.38704237169793
aF-205.38704237169793
aF-205.3778125450941
aF-205.3778125450941
aF-205.3778125450941
aF-205.3778125450941
aF-205.37715578400744
aF-205.37715578400744
aF-205.37715578400744
aF-205.37715578400744
aF-205.37715578400744
aF-205.37715578400744
aF-205.3635018332535
aF-205.36203960164832
aF-205.36203960164832
aF-205.36203960164832
aF-205.36203960164832
aF-205.36203960164832
aF-205.36203960164832
aF-205.36061201859036
aF-205.36061201859025
aF-205.36061201859036
aF-205.36061201859036
aF-205.35771842767593
aF-205.35771842767593
aF-205.35771842767588
aF-205.35771842767593
aF-205.35629075557955
aF-205.35629075557952
aF-205.35629075557952
aF-205.35533109849922
aF-205.35424914323394
aF-205.35164055583206
aF-205.35164055583206
aF-205.35164055583206
aF-205.35164055583206
aF-205.35164055583206
aF-205.35164055583206
aF-205.35164055583206
aF-205.35164055583206
aF-205.35164055583206
aF-205.35092700856063
aF-205.35092700856063
aF-205.35092700856063
aF-205.35092700856063
aF-205.35092700856063
aF-205.35092700856063
aF-205.35092700856063
aF-205.35092700856057
aF-205.35092700856063
aF-205.35092700856063
aF-205.35092700856063
aF-205.35092700856063
aF-205.35092700856063
aF-205.35092700856063
aF-205.35092700856063
aF-205.35092700856063
aF-205.35092700856063
aF-205.35092700856063
aF-205.35092700856063
aF-205.35092700856063
aF-205.35092700856063
aF-205.35092700856063
aF-205.35092700856063
aa(lp35
F-1490.0
aF-1490.0
aF-1490.0
aF-1353.0
aF-1353.0
aF-1353.0
aF-1148.0
aF-1148.0
aF-1148.0
aF-1141.3677445692995
aF-1082.0967023106618
aF-1082.0327288236817
aF-1082.0197779202142
aF-943.0
aF-943.0
aF-943.0
aF-925.2511348616404
aF-828.5526319122403
aF-787.8030352280718
aF-784.8634722709014
aF-771.4201848389453
aF-752.2312733155686
aF-743.1803270534009
aF-735.3564091446697
aF-707.3582871180687
aF-693.6850623218476
aF-677.1142117138206
aF-675.9483042619721
aF-674.4431784696948
aF-664.3080476376858
aF-638.7346843019155
aF-629.7688061016985
aF-622.4938182771378
aF-589.7569676352886
aF-583.9859771209444
aF-577.6682496558872
aF-566.5491214218366
aF-549.6163126400453
aF-543.0897524868863
aF-539.6446680025383
aF-530.6117532476995
aF-528.0634862617742
aF-522.4211167217654
aF-515.9788154128473
aF-511.83116069800707
aF-509.8780557490414
aF-493.10931010062944
aF-484.0807606363556
aF-482.14719090329777
aF-475.0390561649466
aF-472.8466206006741
aF-469.938383976478
aF-467.53005513113055
aF-459.73981465715354
aF-455.40900606434667
aF-453.0174199351298
aF-450.0505977137477
aF-445.7777499701707
aF-444.7470267811232
aF-436.7993193876089
aF-435.3090626274622
aF-434.2302622408182
aF-432.2707346318328
aF-427.2979307315422
aF-423.6056296866872
aF-422.0300989835956
aF-420.5603293454315
aF-419.81143546372925
aF-417.99592757513363
aF-417.37938503552664
aF-415.734021001961
aF-414.9508879076707
aF-413.6733208171065
aF-413.28347666733293
aF-411.8387116223208
aF-410.9225579560714
aF-410.82262883391223
aF-409.5112965082918
aF-406.95310429231273
aF-405.4018448381234
aF-404.41925721254637
aF-404.0365035565146
aF-403.7529580330809
aF-403.6368432437679
aF-403.014766879599
aF-402.522608373741
aF-401.7441080995997
aF-401.21185354842396
aF-397.90177009708424
aF-396.28432967010474
aF-393.1497620330128
aF-392.9198486619823
aF-392.45893012116835
aF-388.045366371265
aF-387.96803667079377
aF-386.4581719411453
aF-385.7697648697749
aF-385.6233179589096
aF-385.261094161461
aF-384.958896414693
aF-384.4869274737883
aF-384.4037573816674
aF-384.29478131009125
aF-383.8205792259536
aF-383.0205480701458
aF-382.7486906915244
aF-382.1404510787543
aF-381.7787793791953
aF-381.6280468877844
aF-381.57179075647497
aF-380.59273531907127
aF-380.5403499964723
aF-380.38954936260785
aF-380.3225684651286
aF-379.6056945725343
aF-379.23998295328425
aF-378.62313261243776
aF-378.45648024078054
aF-378.19803225552516
aF-377.953762664217
aF-377.23636566640823
aF-376.8976737148755
aF-376.692721671425
aF-376.5810388778875
aF-376.3263430584626
aF-375.7142035082631
aF-375.3674855821
aF-375.2337410729442
aF-375.0930126847346
aF-374.9187398220486
aF-374.51079537407077
aF-374.2780239695576
aF-374.2780239695576
aF-374.00308214024426
aF-373.8423643693525
aF-373.61199831982213
aF-373.4676388888841
aF-373.20482623872044
aF-372.963475375911
aF-372.80240499453913
aF-372.7370516640163
aF-372.6219677354798
aF-372.1165533510935
aF-372.0359058864362
aF-371.90700576103035
aF-371.7162773254964
aF-371.65619275347547
aF-371.4240607833575
aF-370.7777396787538
aF-370.3940752116318
aF-370.16150773053016
aF-369.9414852341588
aF-369.84579470547703
aF-369.84579470547703
aF-369.785982971637
aF-369.7189694396978
aF-367.69925557442014
aF-367.52805739423104
aF-367.15123991223726
aF-367.00965729765113
aF-366.83850528310535
aF-366.6741008138349
aF-366.6461072864137
aF-366.6263571414357
aF-366.46665046273654
aF-366.4099456706654
aF-366.19739737172586
aF-366.1619379836894
aF-365.97613011188434
aF-365.9506541397548
aF-365.9345082224165
aF-365.8288177604864
aF-365.75689855206804
aF-365.6655445993677
aF-365.63113137110884
aF-365.61379851843213
aF-365.6089163972517
aF-365.5480206600183
aF-365.52064108665064
aF-365.4495785444626
aF-365.38895388790036
aF-365.30417555903136
aF-365.29037694780067
aF-365.23662272362
aF-365.22983698139643
aF-365.2288086834026
aF-365.21738859409425
aF-365.21379967439435
aF-365.18826459905773
aF-365.18494231749037
aF-365.1833572224019
aF-365.13451732500016
aF-365.10243758282417
aF-365.10243758282417
aF-365.09430056901994
aF-365.0906464544251
aF-365.0412992709454
aF-365.03054513678103
aF-365.02313907668685
aF-365.0226632027278
aF-365.0226632027278
aF-364.9870115419404
aF-364.8937703918531
aF-364.8255468918298
aF-364.72018310190884
aF-364.7079121722051
aF-364.69555177728085
aF-364.6228114702275
aF-364.59417696066185
aF-364.5940038903281
aF-364.5940038903281
aF-364.5940038903281
aF-364.5940038903281
aF-364.5648871730746
aF-364.55158813352296
aF-364.55158813352296
aF-364.55158813352296
aF-364.55158813352296
aF-364.51747266945307
aF-364.49410990072835
aF-364.2506638002001
aF-364.22218970356823
aF-364.191494678599
aF-364.191494678599
aF-364.16632191479323
aF-364.1477965573395
aF-364.141420416621
aF-364.12675247053687
aF-364.1095522314676
aF-364.09961014030216
aF-364.0860964807602
aF-364.0744857680154
aF-364.0498356416873
aF-364.04104476083415
aF-364.004299729525
aF-363.9481199842545
aF-363.90379077644377
aF-363.89054339001717
aF-363.86060872472643
aF-363.84941561866515
aF-363.84245326011387
aF-363.8280718192377
aF-363.81600482338655
aF-363.80955773170615
aF-363.8062951109305
aF-363.80385699044314
aF-363.79972698494913
aF-363.79506815270065
aF-363.78910554290223
aF-363.78236318984625
aF-363.7724043465638
aF-363.7700187633138
aF-363.76376241408155
aF-363.7461236665102
aF-363.73284431803853
aF-363.71631418363415
aF-363.70621308287804
aF-363.7057679082294
aF-363.69386288173587
aF-363.68037099548553
aF-363.6773589948154
aF-363.6680863540468
aF-363.66590375641476
aF-363.6650478299214
aF-363.65551307478404
aF-363.6199318915167
aF-363.6001544455076
aF-363.59726942747557
aF-363.58946409138514
aF-363.58570949471044
aF-363.5826220613915
aF-363.58022968435876
aF-363.58011421446975
aF-363.57515673147066
aF-363.5297568521922
aF-363.52594510516025
aF-363.5133966121989
aF-363.5131578890516
aF-363.5123514257075
aF-363.51048718003585
aF-363.50857380129094
aF-363.50069425478415
aF-363.4765761132671
aF-363.43592113772854
aF-363.43379714197374
aF-363.4146829989386
aF-363.39488465098253
aF-363.32985909930005
aF-363.2993085840705
aF-363.2923684880884
aF-363.2903503869781
aF-363.2827937686135
aF-363.2767191721561
aF-363.2716490562189
aF-363.2653183027751
aF-363.26004299675975
aF-363.25903015941117
aF-363.2567224647514
aF-363.25006309891126
aF-363.2486469376153
aF-363.2448467734679
aF-363.24322756372095
aF-363.24161628591537
aF-363.2381198406061
aF-363.2377009581542
aF-363.2361282702178
aF-363.2361282702178
aF-363.23435727611565
aF-363.2337758074784
aF-363.23146666810476
aF-363.23082332109203
aF-363.22868785390193
aF-363.22654772565863
aF-363.2261724295173
aF-363.2261724295173
aF-363.2252048522532
aF-363.21983444525875
aF-363.21556755736606
aF-363.2151212342263
aF-363.2151212342263
aF-363.2106853417727
aF-363.21025463098067
aF-363.2038153452822
aF-363.2004360708268
aF-363.20035554647404
aF-363.19964178375335
aF-363.19772685827127
aF-363.1955303958137
aF-363.1940026169118
aF-363.19392429751605
aF-363.19355584143216
aF-363.1927130851204
aF-363.1926866855834
aF-363.19211059431444
aF-363.1920177036062
aF-363.19197953897407
aF-363.1919232164693
aF-363.19184376006723
aF-363.1917889414112
aF-363.1917547896718
aF-363.19175478972505
aF-363.19175478972494
aF-363.19175478971664
aF-363.1917547897247
aF-363.1917547897273
aF-363.1917547897246
aF-363.1917547897273
aF-363.1917547897273
aF-363.1917547897273
aF-363.1917547897273
aF-363.1917547897273
aF-363.1917547897273
aF-363.1917547897273
aF-363.1917547897273
aF-363.1917547897273
aF-363.1917547897273
aF-363.1917547897273
aF-363.1917547897273
aF-363.1917547897273
aF-363.1917547897273
aatp36
.