(cnumpy.core.multiarray
_reconstruct
p0
(cnumpy
ndarray
p1
(I0
tp2
S'b'
p3
tp4
Rp5
(I1
(I10
I3
I10
tp6
cnumpy
dtype
p7
(S'f8'
p8
I0
I1
tp9
Rp10
(I3
S'<'
p11
NNNI-1
I-1
I0
tp12
bI00
S'\x00\x00\x00\x00\x00\x00\x00\x00\x00\x00\x00\x00\x00\x00\x00\x00\x00\x00\x00\x00\x00\x00\x00\x00\x00\x00\x00\x00\x00\x00\x00\x00\x00\x00\x00\x00\x00\x00\x00\x00\x00\x00\x00\x00\x00\x00\x00\x00\x00\x00\x00\x00\x00\x00\x00\x00\x00\x00\x00\x00\x00\x00\x00\x00\x00\x00\x00\x00\x00\x00\x00\x00\x00\x00\x00\x00\x00\x00\x00\x00\x00\x00\x00\x00\x00\x00\x00\x00\x00\x00\x00\x00\x00\x00\x00\x00\x00\x00\x00\x00\x00\x00\x00\x00\x00\x00\x00\x00\x00\x00\x00\x00\x00\x00\x00\x00\x00\x00\x00\x00\x00\x00\x00\x00\x00\x00\x00\x00\x00\x00\x00\x00\x00\x00\x00\x00\x00\x00\x00\x00\x00\x00\x00\x00\x00\x00\x00\x00\x00\x00\x00\x00\x00\x00\x00\x00\x00\x00\x00\x00\x00\x00\x00\x00\x00\x00\x00\x00\x00\x00\x00\x00\x00\x00\x00\x00\x00\x00\x00\x00\x00\x00\x00\x00\x00\x00\x00\x00\x00\x00\x00\x00\x00\x00\x00\x00\x00\x00\x00\x00\x00\x00\x00\x00\x00\x00\x00\x00\x00\x00\x00\x00\x00\x00\x00\x00\x00\x00\x00\x00\x00\x00\x00\x00\x00\x00\x00\x00\x00\x00\x00\x00\x00\x00\x00\x00\x00\x00\x00\x00\x00\x00\x00\x00\x00\x00\x00\x00\x00\x00\x00\x00\x00\x00\x00\x00\x00\x00\x00\x00\x00\x00\x00\x00\x00\x00\x00\x00\x00\x00\x00\x00\x00\x00\x00\x00\x00\x00\x00\x00\x00\x00\x00\x00\x00\x00\x00\x00\x00\x00\x00\x00\x00\x00\x00\x00\x00\x00\x00\x00\x00\x00\x00\x00\x00\x00\x00\x00\x00\x00\x00\x00\x00\x00\x00\x00\x00\x00\x00\x00\x00\x00\x00\x00\x00\x00\x00\x00\x00\x00\x00\x00\x00\x00\x00\x00\x00\x00\x00\x00\x00\x00\x00\x00\x00\x00\x00\x00\x00\x00\x00\x00\x00\x00\x00\x00\x00\x00\x00\x00\x00\x00\x00\x00\x00\x00\x00\x00\x00\x00\x00\x00\x00\x00\x00\x00\x00\x00\x00\x00\x00\x00\x00\x00\x00\x00\x00\x00\x00\x00\x00\x00\x00\x00\x00\x00\x00\x00\x00\x00\x00\x00\x00\x00\x00\x00\x00\x00\x00\x00\x00\x00\x00\x00\x00\x00\x00\x00\x00\x00\x00\x00\x00\x00\x00\x00\x00\x00\x00\x00\x00\x00\x00\x00\x00\x00\x00\x00\x00\x00\x00\x00\x00\x00\x00\x00\x00\x00\x00\x00\x00\x00\x00\x00\x00\x00\x00\x00\x00\x00\x00\x00\x00\x00\x00\x00\x00\x00\x00\x00\x00\x00\x00\x00\x00\x00\x00\x00\x00\x00\x00\x00\x00\x00\x00\x00\x00\x00\x00\x00\x00\x00\x00\x00\x00\x00\x00\x00\x00\x00\x00\x00\x00\x00\x00\x00\x00\x00\x00\x00\x00\x00\x00\x00\x00\x00\x00\x00\x00\x00\x00\x00\x00\x00\x00\x00\x00\x00\x00\x00\x00\x00\x00\x00\x00\x00\x00\x00\x00\x00\x00\x00\x00\x00\x00\x00\x00\x00\x00\x00\x00\x00\x00\x00\x00\x00\x00\x00\x00\x00\x00\x00\x00\x00\x00\x00\x00\x00\x00\x00\x00\x00\x00\x00\x00\x00\x00\x00\x00\x00\x00\x00\x00\x00\x00\x00\x00\x00\x00\x00\x00\x00\x00\x00\x00\x00\x00\x00\x00\x00\x00\x00\x00\x00\x00\x00\x00\x00\x00\x00\x00\x00\x00\x00\x00\x00\x00\x00\x00\x00\x00\x00\x00\x00\x00\x00\x00\x00\x00\x00\x00\x00\x00\x00\x00\x00\x00\x00\x00\x00\x00\x00\x00\x00\x00\x00\x00\x00\x00\x00\x00\x00\x00\x00\x00\x00\x00\x00\x00\x00\x00\x00\x00\x00\x00\x00\x00\x00\x00\x00\x00\x00\x00\x00\x00\x00\x00\x00\x00\x00\x00\x00\x00\x00\x00\x00\x00\x00\x00\x00\x00\x00\x00\x00\x00\x00\x00\x00\x00\x00\x00\x00\x00\x00\x00\x00\x00\x00\x00\x00\x00\x00\x00\x00\x00\x00\x00\x00\x00\x00\x00\x00\x00\x00\x00\x00\x00\x00\x00\x00\x00\x00\x00\x00\x00\x00\x00\x00\x00\x00\x00\x00\x00\x00\x00\x00\x00\x00\x00\x00\x00\x00\x00\x00\x00\x00\x00\x00\x00\x00\x00\x00\x00\x00\x00\x00\x00\x00\x00\x00\x00\x00\x00\x00\x00\x00\x00\x00\x00\x00\x00\x00\x00\x00\x00\x00\x00\x00\x00\x00\x00\x00\x00\x00\x00\x00\x00\x00\x00\x00\x00\x00\x00\x00\x00\x00\x00\x00\x00\x00\x00\x00\x00\x00\x00\x00\x00\x00\x00\x00\x00\x00\x00\x00\x00\x00\x00\x00\x00\x00\x00\x00\x00\x00\x00\x00\x00\x00\x00\x00\x00\x00\x00\x00\x00\x00\x00\x00\x00\x00\x00\x00\x00\x00\x00\x00\x00\x00\x00\x00\x00\x00\x00\x00\x00\x00\x00\x00\x00\x00\x00\x00\x00\x00\x00\x00\x00\x00\x00\x00\x00\x00\x00\x00\x00\x00\x00\x00\x00\x00\x00\x00\x00\x00\x00\x00\x00\x00\x00\x00\x00\x00\x00\x00\x00\x00\x00\x00\x00\x00\x00\x00\x00\x00\x00\x00\x00\x00\x00\x00\x00\x00\x00\x00\x00\x00\x00\x00\x00\x00\x00\x00\x00\x00\x00\x00\x00\x00\x00\x00\x00\x00\x00\x00\x00\x00\x00\x00\x00\x00\x00\x00\x00\x00\x00\x00\x00\x00\x00\x00\x00\x00\x00\x00\x00\x00\x00\x00\x00\x00\x00\x00\x00\x00\x00\x00\x00\x00\x00\x00\x00\x00\x00\x00\x00\x00\x00\x00\x00\x00\x00\x00\x00\x00\x00\x00\x00\x00\x00\x00\x00\x00\x00\x00\x00\x00\x00\x00\x00\x00\x00\x00\x00\x00\x00\x00\x00\x00\x00\x00\x00\x00\x00\x00\x00\x00\x00\x00\x00\x00\x00\x00\x00\x00\x00\x00\x00\x00\x00\x00\x00\x00\x00\x00\x00\x00\x00\x00\x00\x00\x00\x00\x00\x00\x00\x00\x00\x00\x00\x00\x00\x00\x00\x00\x00\x00\x00\x00\x00\x00\x00\x00\x00\x00\x00\x00\x00\x00\x00\x00\x00\x00\x00\x00\x00\x00\x00\x00\x00\x00\x00\x00\x00\x00\x00\x00\x00\x00\x00\x00\x00\x00\x00\x00\x00\x00\x00\x00\x00\x00\x00\x00\x00\x00\x00\x00\x00\x00\x00\x00\x00\x00\x00\x00\x00\x00\x00\x00\x00\x00\x00\x00\x00\x00\x00\x00\x00\x00\x00\x00\x00\x00\x00\x00\x00\x00\x00\x00\x00\x00\x00\x00\x00\x00\x00\x00\x00\x00\x00\x00\x00\x00\x00\x00\x00\x00\x00\x00\x00\x00\x00\x00\x00\x00\x00\x00\x00\x00\x00\x00\x00\x00\x00\x00\x00\x00\x00\x00\x00\x00\x00\x00\x00\x00\x00\x00\x00\x00\x00\x00\x00\x00\x00\x00\x00\x00\x00\x00\x00\x00\x00\x00\x00\x00\x00\x00\x00\x00\x00\x00\x00\x00\x00\x00\x00\x00\x00\x00\x00\x00\x00\x00\x00\x00\x00\x00\x00\x00\x00\x00\x00\x00\x00\x00\x00\x00\x00\x00\x00\x00\x00\x00\x00\x00\x00\x00\x00\x00\x00\x00\x00\x00\x00\x00\x00\x00\x00\x00\x00\x00\x00\x00\x00\x00\x00\x00\x00\x00\x00\x00\x00\x00\x00\x00\x00\x00\x00\x00\x00\x00\x00\x00\x00\x00\x00\x00\x00\x00\x00\x00\x00\x00\x00\x00\x00\x00\x00\x00\x00\x00\x00\x00\x00\x00\x00\x00\x00\x00\x00\x00\x00\x00\x00\x00\x00\x00\x00\x00\x00\x00\x00\x00\x00\x00\x00\x00\x00\x00\x00\x00\x00\x00\x00\x00\x00\x00\x00\x00\x00\x00\x00\x00\x00\x00\x00\x00\x00\x00\x00\x00\x00\x00\x00\x00\x00\x00\x00\x00\x00\x00\x00\x00\x00\x00\x00\x00\x00\x00\x00\x00\x00\x00\x00\x00\x00\x00\x00\x00\x00\x00\x00\x00\x00\x00\x00\x00\x00\x00\x00\x00\x00\x00\x00\x00\x00\x00\x00\x00\x00\x00\x00\x00\x00\x00\x00\x00\x00\x00\x00\x00\x00\x00\x00\x00\x00\x00\x00\x00\x00\x00\x00\x00\x00\x00\x00\x00\x00\x00\x00\x00\x00\x00\x00\x00\x00\x00\x00\x00\x00\x00\x00\x00\x00\x00\x00\x00\x00\x00\x00\x00\x00\x00\x00\x00\x00\x00\x00\x00\x00\x00\x00\x00\x00\x00\x00\x00\x00\x00\x00\x00\x00\x00\x00\x00\x00\x00\x00\x00\x00\x00\x00\x00\x00\x00\x00\x00\x00\x00\x00\x00\x00\x00\x00\x00\x00\x00\x00\x00\x00\x00\x00\x00\x00\x00\x00\x00\x00\x00\x00\x00\x00\x00\x00\x00\x00\x00\x00\x00\x00\x00\x00\x00\x00\x00\x00\x00\x00\x00\x00\x00\x00\x00\x00\x00\x00\x00\x00\x00\x00\x00\x00\x00\x00\x00\x00\x00\x00\x00\x00\x00\x00\x00\x00\x00\x00\x00\x00\x00\x00\x00\x00\x00\x00\x00\x00\x00\x00\x00\x00\x00\x00\x00\x00\x00\x00\x00\x00\x00\x00\x00\x00\x00\x00\x00\x00\x00\x00\x00\x00\x00\x00\x00\x00\x00\x00\x00\x00\x00\x00\x00\x00\x00\x00\x00\x00\x00\x00\x00\x00\x00\x00\x00\x00\x00\x00\x00\x00\x00\x00\x00\x00\x00\x00\x00\x00\x00\x00\x00\x00\x00\x00\x00\x00\x00\x00\x00\x00\x00\x00\x00\x00\x00\x00\x00\x00\x00\x00\x00\x00\x00\x00\x00\x00\x00\x00\x00\x00\x00\x00\x00\x00\x00\x00\x00\x00\x00\x00\x00\x00\x00\x00\x00\x00\x00\x00\x00\x00\x00\x00\x00\x00\x00\x00\x00\x00\x00\x00\x00\x00\x00\x00\x00\x00\x00\x00\x00\x00\x00\x00\x00\x00\x00\x00\x00\x00\x00\x00\x00\x00\x00\x00\x00\x00\x00\x00\x00\x00\x00\x00\x00\x00\x00\x00\x00\x00\x00\x00\x00\x00\x00\x00\x00\x00\x00\x00\x00\x00\x00\x00\x00\x00\x00\x00\x00\x00\x00\x00\x00\x00\x00\x00\x00\x00\x00\x00\x00\x00\x00\x00\x00\x00\x00\x00\x00\x00\x00\x00\x00\x00\x00\x00\x00\x00\x00\x00\x00\x00\x00\x00\x00\x00\x00\x00\x00\x00\x00\x00\x00\x00\x00\x00\x00\x00\x00\x00\x00\x00\x00\x00\x00\x00\x00\x00\x00\x00\x00\x00\x00\x00\x00\x00\x00\x00\x00\x00\x00\x00\x00\x00\x00\x00\x00\x00\x00\x00\x00\x00\x00\x00\x00\x00\x00\x00\x00\x00\x00\x00\x00\x00\x00\x00\x00\x00\x00\x00\x00\x00\x00\x00\x00\x00\x00\x00\x00\x00\x00\x00\x00\x00\x00\x00\x00\x00\x00\x00\x00\x00\x00\x00\x00\x00\x00\x00\x00\x00\x00\x00\x00\x00\x00\x00\x00\x00\x00\x00\x00\x00\x00\x00\x00\x00\x00\x00\x00\x00\x00\x00\x00\x00\x00\x00\x00\x00\x00\x00\x00\x00\x00\x00\x00\x00\x00\x00\x00\x00\x00\x00\x00\x00\x00\x00\x00\x00\x00\x00\x00\x00\x00\x00\x00\x00\x00\x00\x00\x00\x00\x00\x00\x00\x00\x00\x00\x00\x00\x00\x00\x00\x00\x00\x00\x00\x00\x00\x00\x00\x00\x00\x00\x00\x00\x00\x00\x00\x00\x00\x00\x00\x00\x00\x00\x00\x00\x00\x00\x00\x00\x00\x00\x00\x00\x00\x00\x00\x00\x00\x00\x00\x00\x00\x00\x00\x00\x00\x00\x00\x00\x00\x00\x00\x00\x00\x00\x00\x00\x00\x00\x00\x00\x00\x00\x00\x00\x00\x00\x00\x00\x00\x00\x00\x00\x00\x00\x00\x00\x00\x00\x00\x00\x00\x00\x00\x00\x00\x00\x00\x00\x00\x00\x00\x00\x00\x00\x00\x00\x00\x00\x00\x00\x00\x00\x00\x00\x00\x00\x00\x00\x00\x00\x00\x00\x00\x00\x00\x00\x00\x00\x00\x00\x00\x00\x00\x00\x00\x00\x00\x00\x00\x00\x00\x00\x00\x00\x00\x00\x00\x00\x00\x00\x00\x00\x00\x00\x00\x00\x00\x00\x00\x00\x00\x00\x00\x00\x00\x00\x00\x00\x00\x00\x00\x00\x00\x00\x00\x00\x00\x00\x00\x00\x00\x00\x00\x00\x00\x00\x00\x00\x00\x00\x00\x00\x00\x00\x00\x00\x00\x00\x00\x00\x00\x00\x00\x00\x00\x00\x00\x00\x00\x00\x00\x00\x00\x00\x00\x00\x00\x00\x00\x00\x00\x00\x00\x00\x00\x00\x00\x00\x00\x00\x00\x00\x00\x00\x00\x00\x00\x00\x00\x00\x00\x00\x00\x00\x00\x00\x00\x00\x00\x00\x00\x00\x00\x00\x00\x00\x00\x00\x00\x00\x00\x00\x00\x00\x00\x00\x00\x00\x00\x00\x00\x00\x00\x00\x00\x00\x00\x00\x00\x00\x00\x00\x00\x00\x00\x00\x00\x00\x00\x00\x00\x00\x00\x00\x00\x00\x00\x00\x00\x00\x00\x00\x00\x00\x00\x00\x00\x00\x00\x00\x00\x00\x00\x00\x00\x00\x00\x00\x00\x00\x00\x00\x00\x00\x00\x00\x00\x00\x00\x00\x00\x00\x00\x00\x00\x00\x00\x00\x00\x00\x00\x00\x00\x00\x00\x00\x00\x00\x00\x00\x00\x00\x00\x00\x00\x00\x00\x00\x00\x00\x00\x00\x00\x00\x00\x00\x00\x00\x00\x00\x00\x00\x00\x00\x00\x00\x00\x00\x00\x00\x00\x00\x00\x00\x00\x00\x00\x00\x00\x00\x00\x00\x00\x00\x00\x00\x00\x00\x00\x00\x00\x00\x00\x00\x00\x00\x00\x00\x00\x00\x00\x00\x00\x00\x00\x00\x00\x00\x00\x00\x00\x00\x00\x00\x00\x00\x00\x00\x00\x00\x00\x00\x00\x00\x00\x00\x00\x00\x00\x00\x00\x00\x00\x00\x00\x00\x00\x00\x00\x00\x00\x00'
p13
tp14
bg0
(g1
(I0
tp15
g3
tp16
Rp17
(I1
(I10
I3
I10
tp18
g10
I00
S'\x00\x00\x00\x00\x00\x00\x00\x00\x00\x00\x00\x00\x00\x00\x00\x00\x00\x00\x00\x00\x00\x00\x00\x00\x00\x00\x00\x00\x00\x00\x00\x00\x00\x00\x00\x00\x00\x00\x00\x00\x00\x00\x00\x00\x00\x00\x00\x00\x00\x00\x00\x00\x00\x00\x00\x00\x00\x00\x00\x00\x00\x00\x00\x00\x00\x00\x00\x00\x00\x00\x00\x00\x00\x00\x00\x00\x00\x00\x00\x00\x00\x00\x00\x00\x00\x00\x00\x00\x00\x00\x00\x00\x00\x00\x00\x00\x00\x00\x00\x00\x00\x00\x00\x00\x00\x00\x00\x00\x00\x00\x00\x00\x00\x00\x00\x00\x00\x00\x00\x00\x00\x00\x00\x00\x00\x00\x00\x00\x00\x00\x00\x00\x00\x00\x00\x00\x00\x00\x00\x00\x00\x00\x00\x00\x00\x00\x00\x00\x00\x00\x00\x00\x00\x00\x00\x00\x00\x00\x00\x00\x00\x00\x00\x00\x00\x00\x00\x00\x00\x00\x00\x00\x00\x00\x00\x00\x00\x00\x00\x00\x00\x00\x00\x00\x00\x00\x00\x00\x00\x00\x00\x00\x00\x00\x00\x00\x00\x00\x00\x00\x00\x00\x00\x00\x00\x00\x00\x00\x00\x00\x00\x00\x00\x00\x00\x00\x00\x00\x00\x00\x00\x00\x00\x00\x00\x00\x00\x00\x00\x00\x00\x00\x00\x00\x00\x00\x00\x00\x00\x00\x00\x00\x00\x00\x00\x00\x00\x00\x00\x00\x00\x00\x00\x00\x00\x00\x00\x00\x00\x00\x00\x00\x00\x00\x00\x00\x00\x00\x00\x00\x00\x00\x00\x00\x00\x00\x00\x00\x00\x00\x00\x00\x00\x00\x00\x00\x00\x00\x00\x00\x00\x00\x00\x00\x00\x00\x00\x00\x00\x00\x00\x00\x00\x00\x00\x00\x00\x00\x00\x00\x00\x00\x00\x00\x00\x00\x00\x00\x00\x00\x00\x00\x00\x00\x00\x00\x00\x00\x00\x00\x00\x00\x00\x00\x00\x00\x00\x00\x00\x00\x00\x00\x00\x00\x00\x00\x00\x00\x00\x00\x00\x00\x00\x00\x00\x00\x00\x00\x00\x00\x00\x00\x00\x00\x00\x00\x00\x00\x00\x00\x00\x00\x00\x00\x00\x00\x00\x00\x00\x00\x00\x00\x00\x00\x00\x00\x00\x00\x00\x00\x00\x00\x00\x00\x00\x00\x00\x00\x00\x00\x00\x00\x00\x00\x00\x00\x00\x00\x00\x00\x00\x00\x00\x00\x00\x00\x00\x00\x00\x00\x00\x00\x00\x00\x00\x00\x00\x00\x00\x00\x00\x00\x00\x00\x00\x00\x00\x00\x00\x00\x00\x00\x00\x00\x00\x00\x00\x00\x00\x00\x00\x00\x00\x00\x00\x00\x00\x00\x00\x00\x00\x00\x00\x00\x00\x00\x00\x00\x00\x00\x00\x00\x00\x00\x00\x00\x00\x00\x00\x00\x00\x00\x00\x00\x00\x00\x00\x00\x00\x00\x00\x00\x00\x00\x00\x00\x00\x00\x00\x00\x00\x00\x00\x00\x00\x00\x00\x00\x00\x00\x00\x00\x00\x00\x00\x00\x00\x00\x00\x00\x00\x00\x00\x00\x00\x00\x00\x00\x00\x00\x00\x00\x00\x00\x00\x00\x00\x00\x00\x00\x00\x00\x00\x00\x00\x00\x00\x00\x00\x00\x00\x00\x00\x00\x00\x00\x00\x00\x00\x00\x00\x00\x00\x00\x00\x00\x00\x00\x00\x00\x00\x00\x00\x00\x00\x00\x00\x00\x00\x00\x00\x00\x00\x00\x00\x00\x00\x00\x00\x00\x00\x00\x00\x00\x00\x00\x00\x00\x00\x00\x00\x00\x00\x00\x00\x00\x00\x00\x00\x00\x00\x00\x00\x00\x00\x00\x00\x00\x00\x00\x00\x00\x00\x00\x00\x00\x00\x00\x00\x00\x00\x00\x00\x00\x00\x00\x00\x00\x00\x00\x00\x00\x00\x00\x00\x00\x00\x00\x00\x00\x00\x00\x00\x00\x00\x00\x00\x00\x00\x00\x00\x00\x00\x00\x00\x00\x00\x00\x00\x00\x00\x00\x00\x00\x00\x00\x00\x00\x00\x00\x00\x00\x00\x00\x00\x00\x00\x00\x00\x00\x00\x00\x00\x00\x00\x00\x00\x00\x00\x00\x00\x00\x00\x00\x00\x00\x00\x00\x00\x00\x00\x00\x00\x00\x00\x00\x00\x00\x00\x00\x00\x00\x00\x00\x00\x00\x00\x00\x00\x00\x00\x00\x00\x00\x00\x00\x00\x00\x00\x00\x00\x00\x00\x00\x00\x00\x00\x00\x00\x00\x00\x00\x00\x00\x00\x00\x00\x00\x00\x00\x00\x00\x00\x00\x00\x00\x00\x00\x00\x00\x00\x00\x00\x00\x00\x00\x00\x00\x00\x00\x00\x00\x00\x00\x00\x00\x00\x00\x00\x00\x00\x00\x00\x00\x00\x00\x00\x00\x00\x00\x00\x00\x00\x00\x00\x00\x00\x00\x00\x00\x00\x00\x00\x00\x00\x00\x00\x00\x00\x00\x00\x00\x00\x00\x00\x00\x00\x00\x00\x00\x00\x00\x00\x00\x00\x00\x00\x00\x00\x00\x00\x00\x00\x00\x00\x00\x00\x00\x00\x00\x00\x00\x00\x00\x00\x00\x00\x00\x00\x00\x00\x00\x00\x00\x00\x00\x00\x00\x00\x00\x00\x00\x00\x00\x00\x00\x00\x00\x00\x00\x00\x00\x00\x00\x00\x00\x00\x00\x00\x00\x00\x00\x00\x00\x00\x00\x00\x00\x00\x00\x00\x00\x00\x00\x00\x00\x00\x00\x00\x00\x00\x00\x00\x00\x00\x00\x00\x00\x00\x00\x00\x00\x00\x00\x00\x00\x00\x00\x00\x00\x00\x00\x00\x00\x00\x00\x00\x00\x00\x00\x00\x00\x00\x00\x00\x00\x00\x00\x00\x00\x00\x00\x00\x00\x00\x00\x00\x00\x00\x00\x00\x00\x00\x00\x00\x00\x00\x00\x00\x00\x00\x00\x00\x00\x00\x00\x00\x00\x00\x00\x00\x00\x00\x00\x00\x00\x00\x00\x00\x00\x00\x00\x00\x00\x00\x00\x00\x00\x00\x00\x00\x00\x00\x00\x00\x00\x00\x00\x00\x00\x00\x00\x00\x00\x00\x00\x00\x00\x00\x00\x00\x00\x00\x00\x00\x00\x00\x00\x00\x00\x00\x00\x00\x00\x00\x00\x00\x00\x00\x00\x00\x00\x00\x00\x00\x00\x00\x00\x00\x00\x00\x00\x00\x00\x00\x00\x00\x00\x00\x00\x00\x00\x00\x00\x00\x00\x00\x00\x00\x00\x00\x00\x00\x00\x00\x00\x00\x00\x00\x00\x00\x00\x00\x00\x00\x00\x00\x00\x00\x00\x00\x00\x00\x00\x00\x00\x00\x00\x00\x00\x00\x00\x00\x00\x00\x00\x00\x00\x00\x00\x00\x00\x00\x00\x00\x00\x00\x00\x00\x00\x00\x00\x00\x00\x00\x00\x00\x00\x00\x00\x00\x00\x00\x00\x00\x00\x00\x00\x00\x00\x00\x00\x00\x00\x00\x00\x00\x00\x00\x00\x00\x00\x00\x00\x00\x00\x00\x00\x00\x00\x00\x00\x00\x00\x00\x00\x00\x00\x00\x00\x00\x00\x00\x00\x00\x00\x00\x00\x00\x00\x00\x00\x00\x00\x00\x00\x00\x00\x00\x00\x00\x00\x00\x00\x00\x00\x00\x00\x00\x00\x00\x00\x00\x00\x00\x00\x00\x00\x00\x00\x00\x00\x00\x00\x00\x00\x00\x00\x00\x00\x00\x00\x00\x00\x00\x00\x00\x00\x00\x00\x00\x00\x00\x00\x00\x00\x00\x00\x00\x00\x00\x00\x00\x00\x00\x00\x00\x00\x00\x00\x00\x00\x00\x00\x00\x00\x00\x00\x00\x00\x00\x00\x00\x00\x00\x00\x00\x00\x00\x00\x00\x00\x00\x00\x00\x00\x00\x00\x00\x00\x00\x00\x00\x00\x00\x00\x00\x00\x00\x00\x00\x00\x00\x00\x00\x00\x00\x00\x00\x00\x00\x00\x00\x00\x00\x00\x00\x00\x00\x00\x00\x00\x00\x00\x00\x00\x00\x00\x00\x00\x00\x00\x00\x00\x00\x00\x00\x00\x00\x00\x00\x00\x00\x00\x00\x00\x00\x00\x00\x00\x00\x00\x00\x00\x00\x00\x00\x00\x00\x00\x00\x00\x00\x00\x00\x00\x00\x00\x00\x00\x00\x00\x00\x00\x00\x00\x00\x00\x00\x00\x00\x00\x00\x00\x00\x00\x00\x00\x00\x00\x00\x00\x00\x00\x00\x00\x00\x00\x00\x00\x00\x00\x00\x00\x00\x00\x00\x00\x00\x00\x00\x00\x00\x00\x00\x00\x00\x00\x00\x00\x00\x00\x00\x00\x00\x00\x00\x00\x00\x00\x00\x00\x00\x00\x00\x00\x00\x00\x00\x00\x00\x00\x00\x00\x00\x00\x00\x00\x00\x00\x00\x00\x00\x00\x00\x00\x00\x00\x00\x00\x00\x00\x00\x00\x00\x00\x00\x00\x00\x00\x00\x00\x00\x00\x00\x00\x00\x00\x00\x00\x00\x00\x00\x00\x00\x00\x00\x00\x00\x00\x00\x00\x00\x00\x00\x00\x00\x00\x00\x00\x00\x00\x00\x00\x00\x00\x00\x00\x00\x00\x00\x00\x00\x00\x00\x00\x00\x00\x00\x00\x00\x00\x00\x00\x00\x00\x00\x00\x00\x00\x00\x00\x00\x00\x00\x00\x00\x00\x00\x00\x00\x00\x00\x00\x00\x00\x00\x00\x00\x00\x00\x00\x00\x00\x00\x00\x00\x00\x00\x00\x00\x00\x00\x00\x00\x00\x00\x00\x00\x00\x00\x00\x00\x00\x00\x00\x00\x00\x00\x00\x00\x00\x00\x00\x00\x00\x00\x00\x00\x00\x00\x00\x00\x00\x00\x00\x00\x00\x00\x00\x00\x00\x00\x00\x00\x00\x00\x00\x00\x00\x00\x00\x00\x00\x00\x00\x00\x00\x00\x00\x00\x00\x00\x00\x00\x00\x00\x00\x00\x00\x00\x00\x00\x00\x00\x00\x00\x00\x00\x00\x00\x00\x00\x00\x00\x00\x00\x00\x00\x00\x00\x00\x00\x00\x00\x00\x00\x00\x00\x00\x00\x00\x00\x00\x00\x00\x00\x00\x00\x00\x00\x00\x00\x00\x00\x00\x00\x00\x00\x00\x00\x00\x00\x00\x00\x00\x00\x00\x00\x00\x00\x00\x00\x00\x00\x00\x00\x00\x00\x00\x00\x00\x00\x00\x00\x00\x00\x00\x00\x00\x00\x00\x00\x00\x00\x00\x00\x00\x00\x00\x00\x00\x00\x00\x00\x00\x00\x00\x00\x00\x00\x00\x00\x00\x00\x00\x00\x00\x00\x00\x00\x00\x00\x00\x00\x00\x00\x00\x00\x00\x00\x00\x00\x00\x00\x00\x00\x00\x00\x00\x00\x00\x00\x00\x00\x00\x00\x00\x00\x00\x00\x00\x00\x00\x00\x00\x00\x00\x00\x00\x00\x00\x00\x00\x00\x00\x00\x00\x00\x00\x00\x00\x00\x00\x00\x00\x00\x00\x00\x00\x00\x00\x00\x00\x00\x00\x00\x00\x00\x00\x00\x00\x00\x00\x00\x00\x00\x00\x00\x00\x00\x00\x00\x00\x00\x00\x00\x00\x00\x00\x00\x00\x00\x00\x00\x00\x00\x00\x00\x00\x00\x00\x00\x00\x00\x00\x00\x00\x00\x00\x00\x00\x00\x00\x00\x00\x00\x00\x00\x00\x00\x00\x00\x00\x00\x00\x00\x00\x00\x00\x00\x00\x00\x00\x00\x00\x00\x00\x00\x00\x00\x00\x00\x00\x00\x00\x00\x00\x00\x00\x00\x00\x00\x00\x00\x00\x00\x00\x00\x00\x00\x00\x00\x00\x00\x00\x00\x00\x00\x00\x00\x00\x00\x00\x00\x00\x00\x00\x00\x00\x00\x00\x00\x00\x00\x00\x00\x00\x00\x00\x00\x00\x00\x00\x00\x00\x00\x00\x00\x00\x00\x00\x00\x00\x00\x00\x00\x00\x00\x00\x00\x00\x00\x00\x00\x00\x00\x00\x00\x00\x00\x00\x00\x00\x00\x00\x00\x00\x00\x00\x00\x00\x00\x00\x00\x00\x00\x00\x00\x00\x00\x00\x00\x00\x00\x00\x00\x00\x00\x00\x00\x00\x00\x00\x00\x00\x00\x00\x00\x00\x00\x00\x00\x00\x00\x00\x00\x00\x00\x00\x00\x00\x00\x00\x00\x00\x00\x00\x00\x00\x00\x00\x00\x00\x00\x00\x00\x00\x00\x00\x00\x00\x00\x00\x00\x00\x00\x00\x00\x00\x00\x00\x00\x00\x00\x00\x00\x00\x00\x00\x00\x00\x00\x00\x00\x00\x00\x00\x00\x00\x00\x00\x00\x00\x00\x00\x00\x00\x00\x00\x00\x00\x00\x00\x00\x00\x00\x00\x00\x00\x00\x00\x00\x00\x00\x00\x00\x00\x00\x00\x00\x00\x00\x00\x00\x00\x00\x00\x00\x00\x00\x00\x00\x00\x00\x00\x00\x00\x00\x00\x00\x00\x00\x00\x00\x00\x00\x00\x00\x00\x00\x00\x00\x00\x00\x00\x00\x00\x00\x00\x00\x00\x00\x00\x00\x00\x00\x00\x00\x00\x00\x00\x00\x00\x00\x00\x00\x00\x00\x00\x00\x00\x00\x00\x00\x00\x00\x00\x00\x00\x00\x00\x00\x00\x00\x00\x00\x00\x00\x00\x00\x00\x00\x00\x00\x00\x00\x00\x00\x00\x00\x00\x00\x00\x00\x00\x00\x00\x00\x00\x00\x00\x00\x00\x00\x00\x00\x00\x00\x00\x00\x00\x00\x00\x00\x00\x00\x00\x00\x00\x00\x00\x00\x00\x00\x00\x00\x00\x00\x00\x00\x00\x00\x00\x00\x00\x00\x00\x00\x00\x00\x00\x00\x00\x00\x00\x00\x00\x00\x00\x00\x00\x00\x00\x00\x00\x00\x00\x00\x00\x00\x00\x00\x00\x00\x00\x00\x00\x00\x00\x00\x00\x00\x00\x00\x00\x00\x00\x00\x00\x00\x00\x00\x00\x00\x00\x00\x00\x00\x00\x00\x00\x00\x00\x00\x00\x00\x00\x00\x00\x00\x00\x00\x00\x00\x00\x00\x00\x00\x00\x00\x00\x00\x00\x00\x00\x00\x00\x00\x00\x00\x00\x00\x00\x00\x00\x00\x00\x00\x00\x00\x00\x00\x00\x00\x00\x00\x00\x00\x00\x00\x00\x00\x00\x00\x00\x00\x00\x00\x00\x00\x00\x00\x00\x00\x00\x00\x00\x00\x00\x00\x00\x00\x00\x00\x00\x00\x00\x00\x00\x00\x00\x00\x00\x00\x00\x00\x00\x00\x00\x00\x00\x00\x00\x00\x00\x00\x00\x00\x00\x00\x00\x00\x00\x00\x00\x00\x00\x00\x00\x00\x00\x00\x00\x00\x00\x00\x00\x00\x00\x00\x00\x00\x00\x00\x00\x00\x00\x00\x00'
p19
tp20
bg0
(g1
(I0
tp21
g3
tp22
Rp23
(I1
(I10
tp24
g10
I00
S'\x00\x00\x00\x00\x00\x00\x00\x00\x00\x00\x00\x00\x00\x00\x00\x00\x00\x00\x00\x00\x00\x00\x00\x00\x00\x00\x00\x00\x00\x00\x00\x00\x00\x00\x00\x00\x00\x00\x00\x00\x00\xd2I\xf0\x93{o\xc00\xd2\x9b\x1e\x17\x84q\xc00\xb9n\x0c\x8a\x80p\xc0\x8fI\x91\x92d\xfdi\xc0\x14\x96\xf4\x19\x8d\xcft\xc0'
p25
tp26
bg0
(g1
(I0
tp27
g3
tp28
Rp29
(I1
(I10
tp30
g10
I00
S'\x00\x00\x00\x00\x00\x00\x00\x00\x00\x00\x00\x00\x00\x00\x00\x00\x00\x00\x00\x00\x00\x00\x00\x00\x00\x00\x00\x00\x00\x00\x00\x00\x00\x00\x00\x00\x00\x00\x00\x00\x00\x00\x00l\x17O9@\x00\x00`\x8c\xe8\\\x97@\x00\x00`~\x03\x96\x83@\x00\x00@\x8ae)|@\x00\x00\x00\xe3\xf4E\x7f@'
p31
tp32
b(lp33
(lp34
F-1881.0
aF-1881.0
aF-1881.0
aF-1846.0
aF-1846.0
aF-1846.0
aF-1745.0
aF-1745.0
aF-1745.0
aF-1646.7621571111579
aF-692.0
aF-692.0
aF-692.0
aF-644.1144739883823
aF-574.42721574716
aF-573.4335899828143
aF-572.4753355518687
aF-572.2683189870045
aF-571.3111403423861
aF-567.0935277237628
aF-563.0
aF-563.0
aF-563.0
aF-562.8608422870184
aF-544.4022219930976
aF-544.3995705692896
aF-543.1187871994266
aF-542.632127275369
aF-542.415171003691
aF-539.1964029699567
aF-520.0588635481727
aF-515.7725685450139
aF-510.7535938299483
aF-506.54048830652863
aF-503.2841782604745
aF-500.776177290484
aF-487.44655514623
aF-477.6887888893337
aF-471.2966929657764
aF-467.53566460316097
aF-460.16483819157935
aF-456.2818740935826
aF-448.571149693415
aF-446.0318570062826
aF-431.70485190119393
aF-428.2428023801481
aF-419.11935892105527
aF-406.9999012303596
aF-389.93332196540797
aF-386.9417539405496
aF-382.4567650943588
aF-371.58089596491214
aF-362.60789297629924
aF-347.4926963231988
aF-341.4827997096528
aF-328.9963869900531
aF-322.7325226931535
aF-319.0176934341758
aF-314.0374200405896
aF-309.8505113435555
aF-292.1203816485018
aF-289.8492791948771
aF-289.3510931468067
aF-287.42553541508755
aF-285.03466162807575
aF-283.72500264816983
aF-283.61382624862375
aF-281.24032598092407
aF-260.8886542475726
aF-258.9141163917928
aF-258.51374688092653
aF-258.24263921457964
aF-258.14654239205294
aF-258.126455469824
aF-253.9798313836099
aF-253.97084360662726
aF-253.9539600445926
aF-253.91764042699268
aF-253.86321733412964
aF-253.85270566906775
aF-253.828525167803
aF-253.7933549224262
aF-253.61398116954555
aF-253.4556118865362
aF-252.8813508983641
aF-252.82003596992345
aF-252.81856852164614
aF-252.80644229456857
aF-252.80627924958335
aF-252.6861379594587
aF-252.6051325041619
aF-252.5770210900128
aF-252.5686232160904
aF-252.5686232160904
aF-252.4894460118111
aF-252.4534139591152
aF-252.32237715350726
aF-252.23301623062662
aF-252.23168299689488
aF-252.20782241126338
aF-252.2045935480738
aF-252.08936902407183
aF-252.02402402778245
aF-252.0236150700974
aF-252.0236150700974
aF-252.0147403423639
aF-252.01431303519408
aF-251.86180891435632
aF-251.86180891435637
aF-251.86180891435652
aF-251.86180891435652
aF-251.86180891435652
aF-251.86180891435652
aF-251.86180891435652
aF-251.86180891435652
aF-251.86180891435652
aF-251.86180891435652
aF-251.86180891435652
aF-251.86180891435652
aF-251.86180891435652
aF-251.86180891435652
aF-251.86180891435652
aF-251.86180891435652
aF-251.86180891435652
aF-251.86180891435652
aF-251.86180891435652
aF-251.86180891435652
aF-251.86180891435652
aF-251.86180891435652
aF-251.86180891435652
aF-251.86180891435652
aF-251.86180891435652
aF-251.86180891435652
aF-251.86180891435652
aF-251.86180891435652
aF-251.86180891435652
aF-251.86180891435652
aF-251.86180891435652
aF-251.86180891435652
aF-251.86180891435652
aF-251.86180891435652
aa(lp35
F-1614.0
aF-1614.0
aF-1614.0
aF-1586.0
aF-1586.0
aF-1586.0
aF-1547.0
aF-1547.0
aF-1547.0
aF-1444.2670771840433
aF-859.1369046233478
aF-859.1269096651721
aF-859.0592111309363
aF-754.4289242133598
aF-709.4596735545821
aF-705.3160850106741
aF-705.0844591418976
aF-705.0834515042828
aF-687.5415161920478
aF-680.9267713210758
aF-669.8134013143084
aF-657.5976348186153
aF-643.9349158661511
aF-634.0718990803653
aF-625.6929447755937
aF-623.6811686434772
aF-617.1407206301991
aF-613.5847321146042
aF-612.4543341954612
aF-608.7053089990059
aF-598.101892886448
aF-590.4174148306267
aF-577.6602971373803
aF-568.0078455403104
aF-563.1144955742252
aF-547.5847833048853
aF-539.3927348876504
aF-528.9267108824669
aF-524.601803679402
aF-516.9236252511126
aF-501.36974322983264
aF-497.99018129815016
aF-493.5800801657024
aF-486.00165040271077
aF-484.6520714325119
aF-475.5327888142315
aF-471.72331981334406
aF-468.3427067488288
aF-463.7944313485177
aF-461.86977498911955
aF-455.2710829415023
aF-452.63930739586937
aF-449.348426469839
aF-446.33173018268104
aF-443.97416435121795
aF-441.67693254413183
aF-433.64576006407697
aF-423.5671312748539
aF-421.2039932112091
aF-419.9650482365141
aF-416.1355056010908
aF-406.8218350748485
aF-401.2856621737041
aF-395.62542036605066
aF-392.9474464113202
aF-391.5153378213935
aF-390.64650484246465
aF-380.68821519873546
aF-376.15445767222946
aF-372.0583509639996
aF-369.7427869274553
aF-366.2425318566426
aF-365.2251509120926
aF-362.3018781384817
aF-360.87564404642603
aF-359.15107688711254
aF-356.9988743287756
aF-355.938225994697
aF-355.45529753884125
aF-355.1865263657786
aF-354.77432212517056
aF-353.2625617644515
aF-348.33199638218395
aF-344.5171393780494
aF-340.26541457265006
aF-336.23151650159934
aF-334.85716710809146
aF-334.8571671080914
aF-333.5394055129777
aF-331.7513834676713
aF-329.9069760631312
aF-329.8086586647702
aF-329.7287438157987
aF-329.3002573666182
aF-328.5797820591556
aF-327.31473555368837
aF-326.3318171473339
aF-325.2680140838982
aF-324.99329740232145
aF-323.6470934816702
aF-322.5501202631744
aF-321.9022380329776
aF-321.8936906510514
aF-320.2980911623924
aF-319.3767050672108
aF-317.2846564303381
aF-316.1270099717258
aF-314.91331860128753
aF-313.678542695626
aF-313.37742015375903
aF-312.9674272805518
aF-312.72579801625034
aF-312.4123875329279
aF-312.04590925955
aF-311.63195706274576
aF-311.4344725054801
aF-311.15213014134014
aF-310.9273223150623
aF-310.36900092207384
aF-309.4681626341289
aF-308.9763249869393
aF-308.8535422555952
aF-308.414566514174
aF-308.2956064480539
aF-307.3251730703793
aF-305.9194986587247
aF-305.65490586287353
aF-305.62553071643987
aF-305.4312038193058
aF-305.05491047182903
aF-304.8358358259297
aF-304.75193075709257
aF-304.60084097513163
aF-304.4699308350555
aF-304.242486402814
aF-303.0625097712101
aF-301.929879877324
aF-301.06703089114524
aF-300.23636999003213
aF-299.88032301959305
aF-299.8684627798916
aF-299.290581018673
aF-298.35384703692057
aF-298.03588174778827
aF-297.8620492940392
aF-297.69019284861673
aF-297.15599499860815
aF-296.9159252606536
aF-296.76114000610113
aF-296.5758093368505
aF-296.3409650800274
aF-296.23243363116626
aF-296.0472114683266
aF-296.00889296911885
aF-295.97845371759695
aF-295.6902927308759
aF-295.30406428810875
aF-294.7141584080288
aF-294.53721830588927
aF-293.42649842838705
aF-292.7466706604083
aF-292.49065772605746
aF-292.3261350329524
aF-292.3261350329524
aF-292.1479969656445
aF-291.9794731615607
aF-291.51301251607566
aF-291.4306553371559
aF-291.31141850392373
aF-291.0122824788643
aF-290.90929247930296
aF-290.83955358246527
aF-290.67624309233634
aF-290.49985911551374
aF-290.23844319227004
aF-290.14758731444533
aF-290.01702288142246
aF-289.7499009676741
aF-289.0969965295104
aF-288.82868457821024
aF-288.82868457821024
aF-288.79724828176137
aF-288.72236485117105
aF-288.65787736926154
aF-288.236616044503
aF-288.17723826736585
aF-288.03665139962703
aF-287.9191731689762
aF-287.91685375775523
aF-287.85846704642256
aF-287.8451264333272
aF-287.8451264333272
aF-287.7920620536162
aF-287.69263189201513
aF-287.6653408158418
aF-287.5220393828741
aF-287.4667021176143
aF-287.2390895065063
aF-287.0792496017505
aF-286.976717713775
aF-286.89023307397906
aF-286.6876312959165
aF-286.6047039764937
aF-286.32703547361416
aF-286.31259309774254
aF-286.31259309774254
aF-286.31259309774254
aF-286.1906532299987
aF-286.1906532299987
aF-286.09362809359334
aF-286.09362809359334
aF-286.09362809359334
aF-286.09362809359334
aF-286.0811225441009
aF-286.0811225441009
aF-285.8788958596148
aF-285.8490904744129
aF-285.7097195525072
aF-285.7097195525072
aF-285.7097195525072
aF-285.69292248359216
aF-285.6772573931194
aF-285.6225584513774
aF-285.57501770038306
aF-285.57501770038306
aF-285.57501770038306
aF-285.50633603367913
aF-285.4016386782769
aF-285.32757725051243
aF-285.2695174290951
aF-285.26815648643304
aF-285.25363415418735
aF-285.2494837181323
aF-285.20355454378904
aF-285.162917444246
aF-285.13317055800786
aF-285.13317055800786
aF-285.1244464065926
aF-285.1244464065926
aF-284.66965609022
aF-284.66965609022
aF-284.66965609022
aF-284.3339984761572
aF-283.9142486461407
aF-283.9142486461407
aF-283.9142486461407
aF-283.8326277805455
aF-283.80487836137354
aF-283.80487836137354
aF-283.71960099992583
aF-283.6041706112989
aF-283.59926382473475
aF-283.5791221726946
aF-283.55377164153754
aF-283.5536220121996
aF-283.5536220121996
aF-283.5228721939708
aF-283.5222287410076
aF-283.5222287410076
aF-283.50010697931737
aF-283.4074491367023
aF-283.4074491367023
aF-283.40470407064583
aF-283.37554990442453
aF-283.35306063061364
aF-283.33924596526475
aF-283.26603403242024
aF-283.2656719560152
aF-283.14279930958537
aF-283.092226729659
aF-283.092226729659
aF-283.06129895205277
aF-282.9073832455035
aF-282.9073832455035
aF-282.8751299141413
aF-282.8751299141413
aF-282.8378651468334
aF-282.5113665139327
aF-282.5113665139327
aF-282.43053253544593
aF-282.3158558860499
aF-282.3158558860499
aF-282.2181454039554
aF-282.2181454039554
aF-282.16474226015083
aF-282.0263850011001
aF-281.9873583064846
aF-281.9836086220281
aF-281.9836086220281
aF-281.9803477967807
aF-281.95324154448934
aF-281.9305519623219
aF-281.9305519623219
aF-281.9305519623219
aF-281.9060745665454
aF-281.9060745665454
aF-281.8474905979951
aF-281.83273384476814
aF-281.80087207923805
aF-281.7977644657796
aF-281.7884984630786
aF-281.76606875053966
aF-281.76606875053966
aF-281.6773527822408
aF-281.6772227911177
aF-281.6242730816426
aF-281.6242730816426
aF-281.57022628169466
aF-281.56965502836846
aF-281.5691610723913
aF-281.54722495710934
aF-281.54722495710934
aF-281.5308827072486
aF-281.53019976476514
aF-281.530167643936
aF-281.530167643936
aF-281.52805611004476
aF-281.52805611004476
aF-281.52699191191454
aF-281.52425235599986
aF-281.52425235599986
aF-281.5010902185819
aF-281.4813023994762
aF-281.4813023994762
aF-281.4813023994762
aF-281.40929214772336
aF-281.40929214772336
aF-281.40929214772336
aF-281.38829320392665
aF-281.38604517258034
aF-281.38445818860816
aF-281.3774847223429
aF-281.3774847223429
aF-281.37377707832206
aF-281.34398769755
aF-281.341316032796
aF-281.3304197350704
aF-281.3304197350704
aF-281.3027331094101
aF-281.2985841566767
aF-281.29332488864117
aF-281.2913143304328
aF-281.2913143304328
aF-281.2913143304328
aF-281.28590949202254
aF-281.28577073295304
aF-281.28577073295304
aF-281.2815765957092
aF-281.2815765957092
aF-281.2815765957092
aF-281.2815765957092
aF-281.2815765957092
aF-281.28157659570974
aF-281.2815765957092
aF-281.27985182764894
aF-281.27985182764894
aF-281.27985182764894
aF-281.27985182764894
aF-281.27960095903495
aF-281.27960095903495
aF-281.27960095903495
aF-281.2787371947407
aF-281.2787371947407
aF-281.2787371947407
aF-281.2787371947407
aF-281.25977553622874
aF-281.25977553622874
aF-281.25977553622874
aF-281.2593688651002
aF-281.2008327062245
aF-281.2008327062245
aF-281.1173723790571
aF-281.0791003891596
aF-281.0791003891675
aF-281.0791003891596
aF-281.0791003891596
aF-281.0756356264593
aF-281.0756356264593
aF-281.01816991473646
aF-281.01816991473646
aF-281.01816991473646
aF-280.926639611903
aF-280.926639611903
aF-280.926639611903
aF-280.86239485927047
aF-280.84710816967976
aF-280.84710816967976
aF-280.84710816967976
aF-280.8348084003052
aF-280.83480840030535
aF-280.8348084003025
aF-280.8348084003052
aF-280.83468260217137
aF-280.83468260217137
aF-280.83468260217137
aF-280.83468260217137
aF-280.8294681051282
aF-280.8294681051316
aF-280.8294681051316
aF-280.82946810513175
aF-280.8294681051316
aF-280.80018698126213
aF-280.8001869812611
aF-280.798623947109
aF-280.78918367960125
aF-280.78512894758217
aF-280.78512894758217
aF-280.78264984374897
aF-280.78264984374897
aF-280.778956517265
aF-280.77437240582697
aF-280.75616477580866
aF-280.75616477580866
aF-280.75616477580866
aF-280.75616477580866
aF-280.75616477580866
aF-280.75616477580866
aF-280.7203762330162
aF-280.7172779293818
aF-280.7172779293818
aF-280.7172779293818
aF-280.71639912684645
aF-280.71639912684645
aF-280.71639912684645
aF-280.7162539284039
aF-280.7162539284039
aF-280.7162539284039
aF-280.71186289939965
aF-280.7116520396123
aF-280.7116520396123
aF-280.7100713525558
aF-280.7100713525558
aF-280.7100713525558
aF-280.7100713525558
aF-280.7100713525558
aF-280.7100713525558
aF-280.7100713525558
aF-280.7100713525558
aF-280.7100713525558
aF-280.7100713525558
aF-280.7100713525558
aF-280.70439031970267
aF-280.7043293319529
aF-280.70183728666717
aF-280.70183728666717
aF-280.70183728666717
aF-280.70183728666717
aF-280.68506173265314
aF-280.68506173265314
aF-280.68506173265314
aF-280.68303819815395
aF-280.67963649215983
aF-280.6793248802393
aF-280.67725939971484
aF-280.67725939971484
aF-280.6748543208296
aF-280.67461942423034
aF-280.67461942423074
aF-280.67461942423034
aF-280.67461942423034
aF-280.657492919062
aF-280.657492919062
aF-280.657492919062
aF-280.65749291906235
aF-280.6327348147338
aF-280.6327348147338
aF-280.6319092616273
aF-280.6319092616273
aF-280.62644403661363
aF-280.62644403661363
aF-280.61950536460347
aF-280.6173683163633
aF-280.6173683163633
aF-280.6173683163634
aF-280.6173683163633
aF-280.61383979591255
aF-280.61383979591255
aF-280.61383979591255
aF-280.61383979591255
aF-280.61383979591255
aF-280.61383979591255
aF-280.61383979591255
aF-280.6138397959128
aF-280.6138397959125
aF-280.61383979591255
aF-280.61383979591255
aF-280.6094783799892
aF-280.60947837998935
aF-280.6094783799892
aF-280.6094783799892
aF-280.6094783799892
aF-280.6094783799892
aF-280.6094783799892
aF-280.5707778285195
aF-280.5707778285195
aF-280.5707778285195
aF-280.55348389659537
aF-280.55348389659537
aF-280.55348389659537
aF-280.55348389659537
aF-280.55348389659537
aF-280.54434388785114
aF-280.544076853177
aF-280.53146967607967
aF-280.53146967607967
aF-280.5301481391687
aF-280.5244774806494
aF-280.52176060279527
aF-280.5217606027947
aF-280.52176060279555
aF-280.52176060279527
aF-280.52176060279527
aF-280.50904157277705
aF-280.50904157277705
aF-280.50904157277705
aF-280.50904157277705
aF-280.50904157277705
aF-280.50904157277705
aF-280.50904157277705
aF-280.50904157277705
aF-280.50904157277705
aF-280.50904157277705
aF-280.50904157277705
aF-280.50904157277705
aF-280.5074222866234
aF-280.50742228662295
aF-280.4954420440906
aF-280.4845599637139
aF-280.4845599637139
aF-280.4845599637139
aF-280.4845599637139
aF-280.4845599637139
aF-280.4845599637139
aF-280.4845599637139
aF-280.48386405862254
aF-280.4790160173023
aF-280.4790160173023
aF-280.4776353284305
aF-280.4772039961798
aF-280.46995606507403
aF-280.46995606507403
aF-280.46995606507403
aF-280.46995606507403
aF-280.46995606507403
aF-280.46995606507403
aF-280.46995606507403
aF-280.46995606507403
aF-280.4618453145257
aF-280.4618453145257
aF-280.4483775867995
aF-280.4483775867995
aF-280.4483775867995
aF-280.4483775867995
aF-280.4483775867995
aF-280.4483775867995
aF-280.4483775867995
aF-280.4483775867995
aF-280.4483775867995
aF-280.44647521154167
aF-280.44647521154167
aF-280.44647521154167
aF-280.44647521154167
aF-280.44647521154167
aF-280.4299810448373
aF-280.4299810448373
aF-280.4001588565541
aF-280.4001588565544
aF-280.4001588565541
aF-280.3949268651569
aF-280.3949268651594
aF-280.3949268651569
aF-280.3948888123229
aF-280.39121245499086
aF-280.38864477027624
aF-280.38864477027624
aF-280.38864477027624
aF-280.38864477027624
aF-280.3886447702768
aF-280.38864477027624
aF-280.3878426180464
aF-280.3878426180464
aF-280.3878426180464
aF-280.3878426180464
aF-280.38784261804676
aF-280.3878426180464
aF-280.3878426180464
aF-280.3878426180464
aF-280.3878426180464
aF-280.3878426180464
aF-280.3878426180464
aF-280.3878426180464
aF-280.3878426180464
aF-280.3878426180464
aF-280.3878426180464
aF-280.3878426180464
aF-280.3878426180464
aF-280.38778795566077
aF-280.38778795566077
aF-280.38778795566077
aF-280.3859891814363
aF-280.3850657007777
aF-280.3770302072587
aF-280.3770302072587
aF-280.3743021949551
aF-280.3743021949557
aF-280.3743021949557
aF-280.3743021949559
aF-280.374302194956
aF-280.3743021949559
aF-280.37326823825697
aF-280.373268238257
aF-280.373268238257
aF-280.373268238257
aF-280.373268238257
aF-280.36651738285394
aF-280.3652018264419
aF-280.3625191672628
aF-280.3625191672628
aF-280.3625191672628
aF-280.3625191672628
aF-280.35928650974313
aF-280.35928650974313
aF-280.35928650974313
aF-280.35928650974313
aF-280.35928650974313
aF-280.35926111193135
aF-280.35898380026543
aF-280.3536056471121
aF-280.3536056471121
aF-280.3536056471121
aF-280.3536056471121
aF-280.33573565331346
aF-280.33573565331346
aF-280.33568914710264
aF-280.335689147103
aF-280.33568914710264
aF-280.3356891471026
aF-280.33568914710264
aF-280.3356891471029
aF-280.33568914710264
aF-280.31654462541695
aF-280.3154355627717
aF-280.31453467263407
aF-280.31453467263407
aF-280.31453467263407
aF-280.31372426243234
aF-280.3137242624454
aF-280.31372426243234
aF-280.31372426244667
aF-280.3137242624469
aF-280.31372426243234
aF-280.3137242624474
aF-280.31372426243234
aF-280.31372426243234
aF-280.31372426243234
aF-280.31372426244707
aF-280.31372426243234
aF-280.31372426243234
aF-280.3137242624473
aF-280.3137242624472
aF-280.31372426243234
aF-280.31372426243234
aF-280.3135969025601
aF-280.3135969025601
aF-280.3135969025601
aF-280.31267906128846
aF-280.31267906128824
aF-280.3126790612884
aF-280.31227668240683
aF-280.3122766824069
aF-280.31190914248026
aF-280.3084936643836
aF-280.3035582955105
aF-280.30355829551127
aF-280.29643358597167
aF-280.29643358597167
aF-280.2952113621879
aF-280.28811660734465
aF-280.28811660734465
aF-280.28811660734465
aF-280.28811660734465
aF-280.2880983588696
aF-280.2840014284883
aF-280.2840014284883
aF-280.2838800256637
aF-280.28251458795756
aF-280.28220530109866
aF-280.28220530109866
aF-280.28220530109866
aF-280.28220530109866
aF-280.28220530109866
aF-280.28220530109866
aF-280.28220530109866
aF-280.28220530109866
aF-280.28220530109866
aF-280.28215849990977
aF-280.28215849990977
aF-280.28215849990977
aF-280.28215849990977
aF-280.28215849990977
aF-280.2821579026056
aF-280.2821579026056
aF-280.28215790260583
aF-280.2821579026056
aF-280.28215530978594
aF-280.2821553097781
aF-280.28215530978594
aF-280.28215530978594
aF-280.2801354836715
aF-280.2784487385167
aF-280.2784487385169
aF-280.27701221110556
aF-280.27701221110556
aF-280.2770122111054
aF-280.2735393600284
aF-280.2735393600284
aF-280.2735393600287
aF-280.2724279698612
aF-280.2724279698612
aF-280.2724279698612
aF-280.2724279698612
aF-280.2717932604656
aF-280.2717932604656
aF-280.2717932604656
aF-280.2717932604656
aF-280.2717932604656
aF-280.2717932604656
aF-280.2717932604634
aF-280.2717932604656
aF-280.27179326046434
aF-280.27179326046564
aF-280.27179326046684
aF-280.2717932604635
aF-280.270489435222
aF-280.2704894352219
aF-280.27048943522243
aF-280.27048943522203
aF-280.2693834714252
aF-280.2678157684899
aF-280.26781576849004
aF-280.2678157684902
aF-280.2678157684902
aF-280.2678157684902
aF-280.2678157684899
aF-280.2678157684899
aF-280.2678157684899
aF-280.2654304351654
aF-280.2654304351653
aF-280.2654304351653
aF-280.2654304351653
aF-280.2654304351653
aF-280.2654304351653
aF-280.26543043516523
aF-280.26543043516534
aF-280.2649673326046
aF-280.2649673326047
aF-280.26226657859365
aF-280.26226657859365
aF-280.2622665785938
aF-280.26226657859365
aF-280.2622665785938
aF-280.26226657859365
aF-280.2622665785946
aF-280.26226657859365
aF-280.26226657859365
aF-280.26226657859365
aF-280.26226657859365
aF-280.26226657859536
aF-280.26226657859365
aF-280.26226657859365
aF-280.26226657859365
aF-280.26226657859365
aF-280.26226657859365
aF-280.2622665785933
aF-280.2556444250831
aF-280.2556444250831
aF-280.2556444250831
aF-280.2556444250831
aF-280.2556444250831
aF-280.2556444250831
aF-280.2556444250831
aF-280.2556444250831
aF-280.2556444250831
aF-280.2556444250831
aF-280.25564442508306
aF-280.25564442508306
aF-280.2556444250831
aF-280.25564442508306
aF-280.25564442508295
aF-280.2556444250834
aF-280.2556444250834
aF-280.2556444250831
aF-280.2556444250831
aF-280.2556444250832
aF-280.2556444250831
aF-280.2556444250831
aF-280.2556444250831
aF-280.2556444250831
aF-280.25564442508306
aF-280.2556444250831
aF-280.2556444250831
aF-280.2556444250831
aa(lp36
F-1877.0
aF-1877.0
aF-1877.0
aF-1815.0
aF-1815.0
aF-1815.0
aF-1548.2089374748477
aF-1470.0
aF-1470.0
aF-1470.0
aF-1317.0
aF-1317.0
aF-1317.0
aF-1263.0
aF-1263.0
aF-1263.0
aF-1245.0343691040923
aF-857.7880744745888
aF-852.0084219103308
aF-852.0084219103308
aF-851.562272460728
aF-845.7470891690249
aF-845.7377542258329
aF-844.5660909097722
aF-839.5101217201884
aF-831.4879659612101
aF-828.5072849265337
aF-820.9054743002679
aF-805.5122404221424
aF-797.9852666064529
aF-763.902842007436
aF-752.2940206075177
aF-749.0532779920002
aF-743.9189425572723
aF-742.8903238393978
aF-739.3486287973924
aF-720.7095658794386
aF-692.8562468432643
aF-676.3270610277051
aF-645.2911286465669
aF-631.3690496707414
aF-596.7610252825987
aF-584.8376153303058
aF-582.5175604254232
aF-578.8924093357197
aF-554.8980897696415
aF-548.663754768936
aF-544.2661951031549
aF-537.770606294724
aF-521.9817853916705
aF-510.9217149060616
aF-485.8164033800908
aF-461.4380802971598
aF-456.29797127094764
aF-451.77254324551075
aF-449.01750406305973
aF-446.03992157821347
aF-444.5779000678101
aF-438.38164366301635
aF-429.5327181931313
aF-418.50728004307706
aF-413.6362249922089
aF-410.07999446273203
aF-402.1591789415896
aF-393.69515703687404
aF-390.70927149664885
aF-387.49680395206207
aF-379.566843889386
aF-374.2945124524424
aF-369.75025703262247
aF-366.0737340733275
aF-364.55497659570386
aF-358.6160956351871
aF-354.49457524517913
aF-348.40831168243756
aF-342.0553990002129
aF-341.1662325186509
aF-339.21632242352354
aF-337.76823629398336
aF-330.0797271684769
aF-327.6948466862475
aF-327.5180397440818
aF-326.42098884340936
aF-323.35958633898684
aF-321.03327965693995
aF-318.97391015580274
aF-312.8926727184148
aF-312.08157476088877
aF-309.3167869410822
aF-308.2454434345835
aF-307.7191098221412
aF-306.19595885657424
aF-304.81905044665206
aF-303.8134951369133
aF-302.99792869852075
aF-302.90108936450366
aF-300.52754164729413
aF-298.92639548752715
aF-296.4449369691055
aF-295.43250399213684
aF-294.92388681335143
aF-294.7147780737787
aF-294.53039508487575
aF-292.99156286583514
aF-290.7908335208404
aF-290.6585446988175
aF-290.52398161232935
aF-288.7898199470457
aF-287.19817432031715
aF-285.89934122313673
aF-284.61259649294453
aF-284.1863367330095
aF-283.9240540564543
aF-281.59492589739625
aF-281.11011028649375
aF-280.5816157194005
aF-280.43062325188265
aF-279.78416319419864
aF-279.2870648729285
aF-278.84148355947826
aF-277.4546904866666
aF-277.18527779204584
aF-277.0308176891116
aF-276.8570659846393
aF-276.5948015194382
aF-276.430975763493
aF-276.25978045876934
aF-276.0462256519175
aF-275.8001078109742
aF-275.5894325711447
aF-275.4954237684642
aF-274.45878072752265
aF-274.43663796305935
aF-274.34168066171316
aF-274.16271076293395
aF-273.73526208921265
aF-273.17848237268754
aF-273.15395614507395
aF-272.8326766955646
aF-272.7508008996409
aF-271.8747280684119
aF-271.42648152021377
aF-271.4148887847053
aF-271.12886044251206
aF-271.06053963784495
aF-270.82901756563206
aF-270.45344099232994
aF-270.2414136376917
aF-269.992797932317
aF-269.95864799789547
aF-269.93554380131155
aF-269.92943869023
aF-269.49751127992596
aF-269.37208436211006
aF-269.1862713477569
aF-268.77020764865745
aF-268.7300038270969
aF-268.4297565900205
aF-268.3834619003013
aF-268.3230478999923
aF-268.30840222343176
aF-268.2790203600605
aF-268.1087455475477
aF-268.05337124727856
aF-267.73428640933577
aF-267.6242600167512
aF-267.2727916513415
aF-267.1308933050395
aF-267.01560038571085
aF-266.9154327135792
aF-266.889881341979
aF-266.7964771257641
aF-266.75598279037445
aF-266.71794078181364
aF-266.5898797160648
aF-266.57357550734463
aF-266.4395285117354
aF-266.2931820721201
aF-266.2829247552844
aF-266.2530638709481
aF-266.1927866716598
aF-266.19143445468796
aF-266.15822465622773
aF-266.15822465622773
aF-266.09437142001104
aF-266.0608677747779
aF-265.92116115153374
aF-265.9103739838804
aF-265.9103739838804
aF-265.90516784104784
aF-265.85888088803165
aF-265.8585842131012
aF-265.72429070476005
aF-265.72429070476005
aF-265.72429070476005
aF-265.72429070476005
aF-265.5715402904051
aF-265.5715402904051
aF-265.56960126244127
aF-265.4495413866458
aF-265.4351471550346
aF-265.35068915959766
aF-265.31385628236603
aF-265.31385628236603
aF-265.27696156046204
aF-265.27696156046204
aF-265.2399623277395
aF-265.1425324523298
aF-265.1408627585198
aF-265.125953993634
aF-265.1228126044325
aF-265.1228126044325
aF-265.1228126044325
aF-265.10530563972196
aF-265.10460425516226
aF-265.10459462253914
aF-265.09593625353824
aF-265.09593625353824
aF-265.0204162622024
aF-264.9313548964928
aF-264.9313548964928
aF-264.9313548964928
aF-264.93030314625
aF-264.89458110309687
aF-264.89458110309687
aF-264.8881739792315
aF-264.8881739792315
aF-264.88011539397365
aF-264.88011539397365
aF-264.8704851045332
aF-264.8704851045332
aF-264.8683891189932
aF-264.85323901634166
aF-264.85321577807673
aF-264.85321577807673
aF-264.8026248936404
aF-264.800191527819
aF-264.74587754039266
aF-264.7194543396801
aF-264.717714005993
aF-264.717714005993
aF-264.717714005993
aF-264.717714005993
aF-264.6299219180598
aF-264.55930661641383
aF-264.55930661641383
aF-264.5384702916779
aF-264.51518641263937
aF-264.51518641263937
aF-264.5084535951211
aF-264.4980627627134
aF-264.4830863115484
aF-264.4830863115484
aF-264.4820543944114
aF-264.46383092765046
aF-264.4635281534207
aF-264.46191780459486
aF-264.4591710759728
aF-264.4438341511773
aF-264.4399318265883
aF-264.4269612096324
aF-264.4269612096324
aF-264.4269612096324
aF-264.4254875433948
aF-264.4254875433947
aF-264.42534693708933
aF-264.4250010843513
aF-264.4250010843513
aF-264.4250010843513
aF-264.41562915424385
aF-264.40552428928777
aF-264.40543463301225
aF-264.3987033974836
aF-264.3987033974836
aF-264.39870339748376
aF-264.3788533882458
aF-264.3788533882456
aF-264.37861743746475
aF-264.3502645712485
aF-264.3502645712485
aF-264.3473302310723
aF-264.3470202176149
aF-264.33612932237554
aF-264.3353699784827
aF-264.3353699784827
aF-264.3353699784827
aF-264.3351795196288
aF-264.3351795196288
aF-264.3350669875218
aF-264.3350669875218
aF-264.33049067950833
aF-264.3284799263219
aF-264.3094660319646
aF-264.3081086036292
aF-264.30810860362925
aF-264.30810860362925
aF-264.30810860362925
aF-264.3066800207658
aF-264.30132996088804
aF-264.30132996088804
aF-264.2808492424506
aF-264.2808492424504
aF-264.2808492424506
aF-264.2774232634519
aF-264.2774232634519
aF-264.2774232634519
aF-264.2774232634519
aF-264.2722937682518
aF-264.27035733856667
aF-264.26939383584266
aF-264.26939383584266
aF-264.26939383584266
aF-264.2690064783077
aF-264.2690064783077
aF-264.2690064783077
aF-264.2690064783077
aF-264.2690064783077
aF-264.2690064783077
aF-264.2690064783077
aF-264.2690064783077
aF-264.2690064783077
aF-264.2690064783077
aF-264.2445712883984
aF-264.2426504275537
aF-264.2426504275537
aF-264.2426504275537
aF-264.238933184868
aF-264.2339391535089
aF-264.2339391535089
aF-264.2339391535074
aF-264.2339391535089
aF-264.2339391535089
aF-264.2339391535089
aF-264.2339391535089
aF-264.2339391535089
aF-264.23393915350897
aF-264.2339391535089
aF-264.2330443932541
aF-264.2330443932541
aF-264.2330443932541
aF-264.19738410984866
aF-264.19165749945194
aF-264.1863941966488
aF-264.185998711319
aF-264.185998711319
aF-264.185998711319
aF-264.18244277222044
aF-264.180090737028
aF-264.1785159416708
aF-264.17851594167064
aF-264.1785159416708
aF-264.1783959163027
aF-264.17657418968366
aF-264.1765741896837
aF-264.1765741896837
aF-264.1765741896837
aF-264.1765741896837
aF-264.1765741896837
aF-264.17606468855627
aF-264.17606468855627
aF-264.1716303141158
aF-264.1716303141157
aF-264.1715980989901
aF-264.17149515932863
aF-264.1695942752429
aF-264.1619676363592
aF-264.16157749691666
aF-264.16157749691666
aF-264.15946616264273
aF-264.15939285655276
aF-264.15939285655276
aF-264.15939285655276
aF-264.14891505800796
aF-264.14676767395787
aF-264.1460729090118
aF-264.1460729090118
aF-264.1460729090118
aF-264.1460729090118
aF-264.1460729090118
aF-264.1460729090118
aF-264.1460729090118
aF-264.1460729090118
aF-264.14596528063566
aF-264.13788039281224
aF-264.13538472002404
aF-264.13538472002404
aF-264.13538472002404
aF-264.12760354835507
aF-264.12760354835507
aF-264.12760354835507
aF-264.1274080176327
aF-264.12688398805443
aF-264.1158048451826
aF-264.1114332694251
aF-264.1108772429365
aF-264.1108772429364
aF-264.1108772429364
aF-264.10620816710616
aF-264.10346799556265
aF-264.10346799556265
aF-264.102344793932
aF-264.102344793932
aF-264.102344793932
aF-264.09835658661297
aF-264.09835658661297
aF-264.09835658661297
aF-264.09835658661297
aF-264.09835658661285
aF-264.0957954587974
aF-264.09132689521806
aF-264.09132689521806
aF-264.09079887300453
aF-264.0907988730045
aF-264.08966301593904
aF-264.0892457642022
aF-264.08630373967105
aF-264.08497007767676
aF-264.0849700776766
aF-264.0849700776766
aF-264.0832808463051
aF-264.07447965937007
aF-264.07318535930494
aF-264.07318535930494
aF-264.0727859420005
aF-264.0727031240155
aF-264.0695781692972
aF-264.06957157031104
aF-264.06957157031104
aF-264.06957157031104
aF-264.0689436556452
aF-264.0688421957463
aF-264.0688421957462
aF-264.0688421957463
aF-264.0688421957463
aF-264.06438366676826
aF-264.0643836667684
aF-264.0643836667682
aF-264.0643836667682
aF-264.0643836667682
aF-264.0624435715156
aF-264.06244357151564
aF-264.06244357151564
aF-264.06110351833024
aF-264.06110351833024
aF-264.0594365580211
aF-264.05943655802065
aF-264.0594365580211
aF-264.05663527929875
aF-264.05663527929875
aF-264.0566352792987
aF-264.05663527929875
aF-264.05663527929835
aF-264.0566352792986
aF-264.0566352792987
aF-264.05663527929875
aF-264.0566352792986
aF-264.05663527929863
aF-264.0563103305994
aF-264.05631033059944
aF-264.05631033059876
aF-264.0552761344477
aF-264.0552761344481
aF-264.0552761344473
aF-264.05527613444724
aF-264.05527613444724
aF-264.0549835546003
aF-264.0549835546006
aF-264.0549835546003
aF-264.0549835546003
aF-264.0549637903573
aF-264.0549637903584
aF-264.0549637903575
aF-264.0549637903575
aF-264.0549637903573
aF-264.0549637903575
aF-264.0549637903573
aF-264.0549637903575
aF-264.0549637903573
aF-264.054963790358
aF-264.0549637903575
aF-264.0542325588435
aF-264.0542325588435
aF-264.0529362619714
aF-264.0523272388547
aF-264.0519796548189
aF-264.0519796548189
aF-264.05087946855116
aF-264.05087946855116
aF-264.05087946855116
aF-264.05087946855116
aF-264.05087946855116
aF-264.05014700398186
aF-264.05014700398186
aF-264.05014700398186
aF-264.05014700398186
aF-264.05014700398186
aF-264.05014700398186
aF-264.05014700398186
aF-264.04659292863204
aF-264.04659292863204
aF-264.04659292863204
aF-264.04659292863204
aF-264.04659292863204
aF-264.0453719911651
aF-264.0453719911632
aF-264.0453719911651
aF-264.04537199116464
aF-264.0453719911651
aF-264.0453719911651
aF-264.0453719911651
aF-264.0453719911651
aF-264.0453719911651
aF-264.0453719911651
aF-264.0453719911651
aF-264.0453719911651
aF-264.0453719911651
aF-264.0453719911651
aF-264.0453719911651
aF-264.0453719911651
aF-264.0453719911651
aF-264.04537120474527
aF-264.04404610269086
aF-264.04404610269086
aF-264.04404610269086
aF-264.04391902250717
aF-264.04236900083134
aF-264.04236900083106
aF-264.04236900083134
aF-264.04227643265233
aF-264.04227643265216
aF-264.04227643265205
aF-264.0422764326521
aF-264.0422764326521
aF-264.0422764326522
aF-264.04227643265205
aF-264.04227643265205
aF-264.04227643265205
aF-264.04227643265205
aF-264.04227643265193
aF-264.04200331609167
aF-264.04200331609195
aF-264.04187020816295
aF-264.04187020816295
aF-264.04187020816295
aF-264.0413675395902
aF-264.0413675395908
aF-264.0413675395908
aF-264.0403792625003
aF-264.0403792625003
aF-264.0403792625003
aF-264.04037926250027
aF-264.0403792625003
aF-264.0403792625003
aF-264.0403792625002
aF-264.0403792625003
aF-264.0403792625003
aF-264.0403792625003
aF-264.04037926250027
aF-264.0403792625003
aF-264.0403792625004
aF-264.0403792625003
aF-264.0403792625003
aF-264.0403792625003
aF-264.0403792625003
aF-264.0403792625003
aF-264.03927277028976
aF-264.0380674899085
aF-264.03806748990706
aF-264.0380674899072
aF-264.03806748990786
aF-264.0380674899085
aF-264.03806748990775
aF-264.0380674899073
aF-264.03806748990854
aF-264.0380674899076
aF-264.0380523796721
aF-264.03805237967225
aF-264.0380523796723
aF-264.03805237967225
aF-264.03805237967225
aF-264.03805237967225
aF-264.0380523796721
aF-264.0372402573295
aF-264.03724025732924
aF-264.0372402573295
aF-264.0372402573295
aF-264.03697031508506
aF-264.0369703150858
aF-264.0369703150858
aF-264.0369703150849
aF-264.0369703150858
aF-264.0369703150858
aF-264.0369703150848
aF-264.0369703150858
aF-264.03697031508466
aF-264.03697031508585
aF-264.03684797415815
aF-264.0368479741578
aF-264.0367445222843
aF-264.0366785711121
aF-264.03667857111213
aF-264.0366785711128
aF-264.03667857111253
aF-264.03667857111196
aF-264.0366785711132
aF-264.03642538159636
aF-264.03640537591633
aF-264.0364053759168
aF-264.0363765641778
aF-264.0363765641778
aF-264.0363765641787
aF-264.0363765641778
aF-264.03554912499976
aF-264.03554912499976
aF-264.0355491249994
aF-264.03554912499976
aF-264.0355491249989
aF-264.0355076642922
aF-264.0355076642922
aF-264.0355045493608
aF-264.03550454936055
aF-264.03550454936095
aF-264.03550454936055
aF-264.0349302068552
aF-264.0349226052659
aF-264.03492260526605
aF-264.03492260526576
aF-264.0344103604176
aF-264.03441036041784
aF-264.03439848200696
aF-264.03439848200645
aF-264.03439848200793
aF-264.03439848200696
aF-264.0343984820068
aF-264.03439848200804
aF-264.03439848200696
aF-264.03439848200696
aF-264.03439848200696
aF-264.03439848200685
aF-264.03439848200816
aF-264.0343984820078
aF-264.03439848200804
aF-264.03439848200696
aF-264.03432691734264
aF-264.03432691734287
aF-264.03432691734287
aF-264.03430779890925
aF-264.03430779890925
aF-264.03430779890925
aF-264.03430779890886
aF-264.0343077989093
aF-264.03430779890897
aF-264.034307798909
aF-264.0343077989093
aF-264.0340913911084
aF-264.0340913911083
aF-264.034091391108
aF-264.03409139110823
aF-264.0340913911086
aF-264.0340913911084
aF-264.0340913911079
aF-264.03371307799904
aF-264.03371307799904
aF-264.03371307799915
aF-264.03371307799904
aF-264.0337130779995
aF-264.0337130779995
aF-264.0337130779995
aF-264.0337130779991
aF-264.0337130779992
aF-264.0337130779993
aF-264.03371307799904
aF-264.033713077999
aF-264.0337130779995
aF-264.0337130779995
aF-264.033713077999
aF-264.0337130779989
aF-264.0337130779995
aF-264.0337130779995
aF-264.03370326282015
aF-264.0337032628187
aF-264.0337032628184
aF-264.0337032628188
aF-264.03370326281964
aF-264.03370326281964
aF-264.03370326281964
aF-264.0337032628187
aF-264.0337032628186
aF-264.0337032628184
aF-264.033703262819
aF-264.03370326281964
aF-264.03370326281964
aF-264.0337032628187
aF-264.03370326281856
aa(lp37
F-1857.0
aF-1857.0
aF-1857.0
aF-1757.0
aF-1757.0
aF-1757.0
aF-1667.0
aF-1667.0
aF-1667.0
aF-1544.1192088960875
aF-579.6889783159388
aF-578.9802880984879
aF-578.612285714057
aF-540.7795299913917
aF-540.6684476329804
aF-540.4928495621647
aF-531.0544217571368
aF-507.9047554307603
aF-504.11529180522604
aF-496.0986269577391
aF-491.7184126715297
aF-485.15445871611195
aF-476.19238359276574
aF-472.4476695163356
aF-468.1087688806275
aF-461.4645329841083
aF-449.86831024907525
aF-444.988210568246
aF-440.39126372444167
aF-437.26380471195444
aF-434.7989277062388
aF-433.0357213966448
aF-431.7143019579005
aF-422.4482569270446
aF-416.54001380432675
aF-411.1010822433361
aF-403.44798124079364
aF-393.7157186864853
aF-389.1552195138948
aF-382.3955828498203
aF-378.09065513307866
aF-376.3168072061343
aF-359.78244326508326
aF-352.4665889029288
aF-336.97318452447877
aF-331.8820451464515
aF-330.9187907724169
aF-326.28542562854665
aF-325.73363776276
aF-324.374177678556
aF-323.3783369530951
aF-321.32168948723603
aF-318.20705735520323
aF-317.80785053173315
aF-317.0538623377082
aF-314.2031170944958
aF-313.09913392676873
aF-307.8135952112009
aF-297.5699621937683
aF-293.1762992339425
aF-290.1010119085429
aF-289.11619293151006
aF-287.3781315516909
aF-285.3011743499007
aF-283.3231191509159
aF-281.81422446705494
aF-278.27360874611344
aF-276.62863386267856
aF-275.861293375035
aF-274.62636131146064
aF-273.0669978846737
aF-269.486673846728
aF-268.923317864939
aF-267.54391406381393
aF-264.67102603173294
aF-261.91543719128765
aF-260.2126851965442
aF-258.50261590707805
aF-256.8367100538012
aF-255.8760623499329
aF-251.5685188430615
aF-248.767022813589
aF-247.9903937902026
aF-247.52314873910706
aF-246.2955527585379
aF-243.12067314611815
aF-240.7456930783732
aF-239.29650891622228
aF-238.88858667375027
aF-238.4281062247295
aF-237.97951708891406
aF-237.48842568613114
aF-236.54199679835313
aF-236.38038052873708
aF-235.59207669128202
aF-235.01628602267732
aF-234.01540537998378
aF-233.5560948150197
aF-233.50130378804545
aF-232.8444089383674
aF-232.44325640098367
aF-231.78371961688234
aF-231.33435969250738
aF-230.85812395038823
aF-230.7075926521187
aF-229.54724901843883
aF-229.42299264901158
aF-229.05550234628635
aF-228.68061397307002
aF-228.23313543400135
aF-227.8882077623598
aF-227.70746121577895
aF-226.91681027132236
aF-226.1785252782555
aF-225.8142525948914
aF-225.66456106034212
aF-225.52755414660072
aF-225.347286296531
aF-224.4982619568671
aF-223.4245494858788
aF-223.35964241918145
aF-223.14957196714306
aF-223.05196140732414
aF-222.78029340653208
aF-222.61452943813822
aF-222.3633382629775
aF-222.19983699013764
aF-222.1765417514047
aF-222.16579620947562
aF-222.1354393928563
aF-222.052492464346
aF-221.98544394968832
aF-221.91706835090844
aF-221.8462529050603
aF-221.73502275804682
aF-220.99924538479283
aF-220.72868048206166
aF-220.55240249148432
aF-220.2547093611861
aF-219.5216213905799
aF-219.2733343788887
aF-219.08184156179487
aF-218.83772544430607
aF-218.6864597400023
aF-218.10160541276545
aF-217.17640633409448
aF-216.86449932569778
aF-216.45982222157485
aF-216.16364530630727
aF-215.96549860943242
aF-215.78652666992696
aF-215.6622234505615
aF-215.54422140184406
aF-215.2781035203228
aF-215.0120631396847
aF-214.66763845629174
aF-214.56236823947737
aF-214.364053248824
aF-214.20742605986936
aF-214.1210121250308
aF-214.0925970169132
aF-213.9280983034631
aF-213.66371687142203
aF-213.4361617382783
aF-213.36641106026104
aF-213.0787861311174
aF-212.831585271572
aF-212.6515184575558
aF-212.61381731214738
aF-212.58684723040338
aF-212.5549853666613
aF-212.49946082898336
aF-212.47552958946295
aF-212.41786277153182
aF-212.32964744265854
aF-212.32964744265854
aF-212.24598308004494
aF-212.1081588398943
aF-211.85743446211592
aF-211.7858866544553
aF-211.72635133207922
aF-211.70102554352397
aF-211.6975439596681
aF-211.67640580057676
aF-211.67373135567817
aF-211.62363422681366
aF-211.60769855397186
aF-211.6045935277549
aF-211.57633279263882
aF-211.5025727909467
aF-211.38884312392656
aF-211.37838503296118
aF-211.36419980499352
aF-211.33204582596858
aF-211.33204582596858
aF-211.28220734551115
aF-211.28220734551115
aF-211.19461064122018
aF-211.19443925623403
aF-211.18639488048012
aF-211.17519480802514
aF-211.16894142799543
aF-211.160110645492
aF-211.15299352552054
aF-211.14165508546165
aF-211.08043732897664
aF-211.0306288393561
aF-210.7622218513225
aF-210.71822957053547
aF-210.6588781108474
aF-210.6588781108474
aF-210.6444812053834
aF-210.63852179173657
aF-210.38033341944885
aF-210.38033341944885
aF-210.38033341944885
aF-210.3789164267953
aF-210.3789164267949
aF-210.31215840555947
aF-210.2435002391434
aF-210.2418036839336
aF-210.2418036839336
aF-210.2418036839336
aF-210.15866646755958
aF-210.15866646755958
aF-210.15846445685904
aF-210.15846445685904
aF-210.15846445685904
aF-210.08359072284216
aF-210.08359072284216
aF-210.02856114130728
aF-210.02707114784263
aF-210.02707114784263
aF-210.00086466011518
aF-209.99522549130947
aF-209.99522549130947
aF-209.98143914149082
aF-209.96519424644742
aF-209.96128298341222
aF-209.9171491740065
aF-209.88234614046473
aF-209.8458756646614
aF-209.8458756646614
aF-209.83107596834668
aF-209.82441863836814
aF-209.82407994274234
aF-209.75293399565194
aF-209.69302338020427
aF-209.6916254141864
aF-209.69162541418615
aF-209.69162541418615
aF-209.6910154718267
aF-209.64295569174539
aF-209.61856788023013
aF-209.61856788023013
aF-209.61856788023013
aF-209.61856788023013
aF-209.61856788023013
aF-209.61504899463918
aF-209.615048994639
aF-209.61034275329058
aF-209.5954867626488
aF-209.5954867626488
aF-209.5490912067
aF-209.5490912067
aF-209.5490912067
aF-209.53161773941682
aF-209.53161773941682
aF-209.52771891433733
aF-209.52771891433733
aF-209.52771891433733
aF-209.52770797219296
aF-209.47118976087515
aF-209.47118976087515
aF-209.4281257792499
aF-209.40294231030063
aF-209.402643867231
aF-209.3931102563516
aF-209.3931102563516
aF-209.3931102563516
aF-209.39176102131222
aF-209.34353866285414
aF-209.34256773421188
aF-209.34256773421208
aF-209.3425677342119
aF-209.34256773421188
aF-209.34256773421188
aF-209.34256773421188
aF-209.32524249115608
aF-209.31652140629782
aF-209.31652140629782
aF-209.31619894364482
aF-209.31539076225198
aF-209.31539076225198
aF-209.31279926072307
aF-209.31279926072307
aF-209.30840036202304
aF-209.30840036202304
aF-209.30061298609954
aF-209.2998381969151
aF-209.2998381969151
aF-209.29951113789002
aF-209.28269067141147
aF-209.28269067141147
aF-209.28269067141147
aF-209.24899133385296
aF-209.2254163236635
aF-209.125434419799
aF-209.125434419799
aF-209.125434419799
aF-209.125434419799
aF-209.08670392684039
aF-209.08670392684039
aF-209.08670392684039
aF-209.0653457374564
aF-209.0525843300469
aF-209.05215407492227
aF-209.03458329169814
aF-209.03458329169814
aF-209.0144657636251
aF-209.01399849078976
aF-209.0120074259391
aF-209.0120074259391
aF-208.992803937067
aF-208.9928039370647
aF-208.9928039370647
aF-208.91236004799066
aF-208.91236004799066
aF-208.91236004799066
aF-208.91236004799066
aF-208.90174946006246
aF-208.90174946006246
aF-208.86911204211347
aF-208.86911204211347
aF-208.86911204211347
aF-208.86911204211347
aF-208.86911204211347
aF-208.84319706364596
aF-208.8431970636462
aF-208.84319706364596
aF-208.8420198692973
aF-208.84201986929745
aF-208.8267615121477
aF-208.82676151214812
aF-208.82676151214815
aF-208.8244516146746
aF-208.82406434858467
aF-208.7573437221032
aF-208.7573437221032
aF-208.75728103924888
aF-208.75728103924888
aF-208.67243678946113
aF-208.66231464985324
aF-208.66231464985324
aF-208.64757935729256
aF-208.60869723147533
aF-208.58783783721975
aF-208.50750057409184
aF-208.49532955484779
aF-208.45645053868358
aF-208.43935851295427
aF-208.43935851295427
aF-208.41941498666847
aF-208.41941498666847
aF-208.40791849383015
aF-208.40680495875935
aF-208.40187064984087
aF-208.40042566482433
aF-208.40042566482433
aF-208.36035130868956
aF-208.32683049176978
aF-208.30761193475462
aF-208.30203907000782
aF-208.30203907000956
aF-208.30203907000768
aF-208.28442788474467
aF-208.28442788474467
aF-208.2718850571561
aF-208.2718850571561
aF-208.2704486656223
aF-208.2704486656223
aF-208.23927463049407
aF-208.23407586460397
aF-208.2198740251592
aF-208.2198740251592
aF-208.2198740251592
aF-208.2198740251592
aF-208.2198740251592
aF-208.21987402515913
aF-208.2198740251592
aF-208.21987402515893
aF-208.21539902944258
aF-208.21539902944258
aF-208.21538787043744
aF-208.18479036158823
aF-208.1847903615885
aF-208.18479036158848
aF-208.1847903615885
aF-208.1847903615885
aF-208.18479036158863
aF-208.1847903615885
aF-208.18033436554353
aF-208.18033436554353
aF-208.18033436554353
aF-208.17991242505315
aF-208.17709298388482
aF-208.17630570982755
aF-208.17630570982755
aF-208.17246485983318
aF-208.17246485983318
aF-208.17246485983318
aF-208.17246485983318
aF-208.15393362091584
aF-208.15393362091584
aF-208.15393362091584
aF-208.14936206751983
aF-208.14936206751983
aF-208.14936206751983
aF-208.14485149752403
aF-208.14485149752403
aF-208.14378873239994
aF-208.14378873239994
aF-208.1315649173558
aF-208.1315649173558
aF-208.12106508237184
aF-208.12106508237184
aF-208.1188790970396
aF-208.10825848436576
aF-208.10825848436673
aF-208.10825848436633
aF-208.10825848436605
aF-208.05795890834767
aF-208.05795890834767
aF-208.0579589083481
aF-208.05795890834767
aF-208.05795890834767
aF-208.05664127931814
aF-208.05664127931814
aF-208.05664127931814
aF-208.05664127931814
aF-208.0423986928658
aF-208.04239869286553
aF-208.04239869286553
aF-208.04239869286573
aF-208.03324771213747
aF-208.00824621073437
aF-208.00824621073477
aF-208.00824621073437
aF-208.00824621073477
aF-208.00824621073437
aF-208.00824621073468
aF-207.99506787345166
aF-207.9950678734514
aF-207.99506787345132
aF-207.98780131584903
aF-207.98780131584877
aF-207.9865301593223
aF-207.9865301593225
aF-207.986530159322
aF-207.9865301593223
aF-207.9865301593223
aF-207.98629350800564
aF-207.97965772775322
aF-207.9796577277529
aF-207.97965772775297
aF-207.97965772775257
aF-207.9796577277526
aF-207.97965772775257
aF-207.97626669374583
aF-207.97626669374606
aF-207.97626669374583
aF-207.96868095884858
aF-207.96868095884875
aF-207.9686809588486
aF-207.9686809588486
aF-207.96868095884884
aF-207.96317903733384
aF-207.96317903733407
aF-207.9631790373338
aF-207.96317903733365
aF-207.96317903733376
aF-207.9631790373339
aF-207.9631790373339
aF-207.96317903733402
aF-207.9631790373338
aF-207.96317903733387
aF-207.9631790373339
aF-207.9631790373339
aF-207.96317903733382
aF-207.96317903733384
aF-207.96317903733384
aF-207.9631790373338
aF-207.96310923726017
aF-207.96310923726003
aF-207.96310923726003
aF-207.96310923725994
aF-207.9631092372601
aF-207.96310923726003
aF-207.96310923726003
aF-207.96310923726003
aF-207.96310923726006
aF-207.96310923726014
aF-207.96310923726003
aF-207.95485699600962
aF-207.95485699600977
aF-207.95485699601034
aF-207.95485699601045
aF-207.95485699601073
aF-207.95218264594433
aF-207.95217747474604
aF-207.95217747474587
aF-207.94865374836462
aF-207.94865374836453
aF-207.94865374836453
aF-207.9486537483646
aF-207.94865374836453
aF-207.94865374836453
aF-207.94865374836456
aF-207.94865374836448
aF-207.94865374836462
aF-207.94790227948144
aF-207.9479022794813
aF-207.94790227948118
aF-207.9479022794813
aF-207.9479022794813
aF-207.94543433577147
aF-207.94543433577147
aF-207.94543433577152
aF-207.94543433577147
aF-207.94543433577152
aF-207.94543433577147
aF-207.9454343357717
aF-207.94543433577158
aF-207.9442112592554
aF-207.94421125925487
aF-207.9442112592554
aF-207.94421125925507
aF-207.94421125925538
aF-207.94421125925538
aF-207.94164151882606
aF-207.9416415188258
aF-207.94164151882651
aF-207.9416415188279
aF-207.94164151882677
aF-207.94164151882686
aF-207.93621465830952
aF-207.9356971869761
aF-207.93569718697594
aF-207.93569718697645
aF-207.93569718697532
aF-207.92840830768358
aF-207.92840830768418
aF-207.92840830768407
aF-207.92840830768426
aF-207.92840830768412
aF-207.928408307685
aF-207.92840830768404
aF-207.92840830768483
aF-207.92840830768404
aF-207.92819109030285
aF-207.92819109030285
aF-207.9281910903028
aF-207.9281910903027
aF-207.92380222655524
aF-207.92380222655524
aF-207.92380222655524
aF-207.92380222655524
aF-207.92080794879783
aF-207.91961565322367
aF-207.91961565322367
aF-207.91961565322342
aF-207.9196156532237
aF-207.9193569352733
aF-207.91852692009377
aF-207.9185269200937
aF-207.91852692009394
aF-207.91852692009388
aF-207.91852692009394
aF-207.91852692009394
aF-207.91852692009394
aF-207.91852692009394
aF-207.91852692009394
aF-207.91852692009394
aF-207.91852692009394
aF-207.91852692009385
aF-207.91852692009377
aF-207.9185269200939
aF-207.9185269200937
aF-207.91852692009368
aF-207.9185269200937
aF-207.9185269200936
aF-207.9185269200938
aF-207.9185269200938
aF-207.91852692009363
aF-207.9185269200939
aF-207.91852692009397
aF-207.91852692009385
aa(lp38
F-1876.0
aF-1876.0
aF-1876.0
aF-1552.0
aF-1552.0
aF-1552.0
aF-1426.17897618493
aF-1244.0
aF-1244.0
aF-1244.0
aF-1084.0
aF-1084.0
aF-1084.0
aF-1074.16806848187
aF-1003.2352032182589
aF-983.2865379204186
aF-893.2605880372574
aF-881.5545348672421
aF-873.331668103815
aF-819.5000433211902
aF-801.8952499850336
aF-789.872762649253
aF-786.5789494125798
aF-780.8246138759537
aF-769.2201298971225
aF-742.2392617586382
aF-722.3520273635218
aF-709.2529210362072
aF-697.97878911705
aF-673.2823144783525
aF-667.1164961131393
aF-652.3103853058353
aF-643.1893724095478
aF-637.7454992373753
aF-632.8784798782489
aF-625.4968782705896
aF-617.7929167754496
aF-602.8678250177654
aF-600.7898085202362
aF-594.3924544719507
aF-588.8577684202808
aF-584.7532262030963
aF-572.9672108073303
aF-566.8293768595772
aF-561.035585356661
aF-549.2681827609648
aF-543.1459864201688
aF-535.9148101836107
aF-532.4709096575085
aF-528.8272619395962
aF-525.1821227200747
aF-510.84924948163064
aF-494.33019617002253
aF-492.6553912076917
aF-491.6039063947748
aF-487.04448879210724
aF-483.1230116276759
aF-481.4732731620453
aF-479.7360007790488
aF-477.6119115208471
aF-469.94522154862335
aF-467.77423209493367
aF-465.91950683827116
aF-463.4943237413013
aF-459.386867613099
aF-457.69989023619235
aF-454.8047542332853
aF-452.27378625393703
aF-451.3862521686348
aF-450.59876050206253
aF-449.8980553433749
aF-445.68019380517836
aF-440.78013853199815
aF-435.8178587352544
aF-431.59292446228284
aF-426.5716876363317
aF-422.1152440629126
aF-420.3949211488061
aF-419.029241735928
aF-416.4661608415975
aF-414.52952695212156
aF-414.12043005262194
aF-412.6936130101559
aF-409.1468974571341
aF-405.34821246214284
aF-404.63736100401786
aF-403.64157532498774
aF-401.7610096041379
aF-401.4470915106052
aF-400.3068308435031
aF-398.55833395631987
aF-395.6971813144674
aF-394.24154804168074
aF-393.7133279340519
aF-392.9131874525407
aF-391.85093245226324
aF-391.0620465694275
aF-390.8489009000652
aF-390.242723421983
aF-388.0089780415789
aF-386.0157774408695
aF-383.82677285464587
aF-378.8330077345836
aF-377.4079441118269
aF-376.03575875208224
aF-375.62497826232124
aF-375.3254334380865
aF-372.9847563737943
aF-369.8865728122704
aF-368.8267965186508
aF-368.20311100320055
aF-366.9513828274996
aF-366.3487314420304
aF-365.3262495779569
aF-365.0959837091786
aF-364.9008638760767
aF-364.1824030474718
aF-363.8267131037425
aF-363.55692373115625
aF-363.35504838190076
aF-363.32108674994714
aF-363.2623046440091
aF-363.2497471847219
aF-363.15622661772653
aF-362.8336257582997
aF-362.6329750649214
aF-362.1722082265641
aF-362.047854907066
aF-361.6734181421218
aF-359.65882747997114
aF-355.5926131381679
aF-354.733727621686
aF-354.52126338154534
aF-354.4517964940528
aF-354.1567477717359
aF-353.9376991770254
aF-353.81912657521207
aF-353.6451443887584
aF-353.2610756106647
aF-352.98385925828455
aF-352.7823325018679
aF-352.62258176378447
aF-352.57536403233274
aF-352.55449007765037
aF-352.4630685806592
aF-352.3115500214777
aF-352.2433578927325
aF-352.13725608422294
aF-351.85321418334155
aF-350.7723517677111
aF-350.27394261942163
aF-348.7180053556847
aF-348.19300763603076
aF-348.1757040609438
aF-347.6658875248266
aF-347.5343202522742
aF-347.2416793590732
aF-347.12249186541624
aF-346.7955605533979
aF-346.53094077628526
aF-346.24650872817017
aF-346.11486563676317
aF-346.0436057644604
aF-345.72326608378336
aF-345.13485054202533
aF-344.9610590905852
aF-344.71526394287207
aF-344.63559521332445
aF-344.58935083419243
aF-344.3803767586589
aF-344.158830498404
aF-343.87720254016904
aF-343.5176417026025
aF-343.13171033545706
aF-342.9728029629628
aF-342.7526201925618
aF-342.4922696423332
aF-341.82824936350255
aF-341.5290812739999
aF-341.4487032485283
aF-341.354121171611
aF-341.32515257063443
aF-341.2244105335976
aF-341.1872871541884
aF-340.8409412899661
aF-340.79102925584357
aF-340.7073495794873
aF-340.7073495794873
aF-340.64342311718946
aF-340.5835016606721
aF-340.5308668561504
aF-340.5204524812604
aF-340.51746165863955
aF-340.43972317972054
aF-340.43972317972054
aF-340.364437567416
aF-340.3564488083187
aF-340.35085726154676
aF-340.3353376588424
aF-340.300010613685
aF-340.25082037242436
aF-340.17944259792057
aF-340.1726469130685
aF-340.1503582835122
aF-340.1503582835122
aF-340.0385306492998
aF-339.746722027479
aF-339.59774608883964
aF-339.44575837821054
aF-339.38356617134644
aF-339.33043946931605
aF-339.3085267301304
aF-339.2923187020459
aF-338.8133966278002
aF-338.6797438566928
aF-338.56277822840934
aF-338.07165796948004
aF-338.0532730552875
aF-337.9771857831671
aF-337.8512126577368
aF-337.7857999228667
aF-337.572375889792
aF-337.5025557596054
aF-337.4082777024485
aF-337.4082777024485
aF-337.32959809845653
aF-337.3025353332651
aF-337.3025353332651
aF-337.280516169353
aF-337.280516169353
aF-337.26446911091574
aF-337.26446911091574
aF-337.1806146991335
aF-337.1219535733463
aF-337.1219535733463
aF-337.07310465843585
aF-337.0184126521772
aF-336.9656698330764
aF-336.78594421062974
aF-336.713088108823
aF-336.68022882229997
aF-336.62927799998096
aF-336.6077225954532
aF-336.4839606289806
aF-336.47853612197673
aF-336.4164876724407
aF-336.3023317181643
aF-336.3023317181643
aF-335.8366715166956
aF-335.52788379839427
aF-335.4844384513532
aF-335.4844384513532
aF-335.4323889754469
aF-335.4323889754469
aF-335.417883572978
aF-335.4146584142061
aF-335.30912667520613
aF-335.26734228198666
aF-335.26418945674857
aF-335.24744523255
aF-335.2466457605108
aF-335.2466457605108
aF-335.1841500921112
aF-335.09258092296324
aF-335.0708234464375
aF-335.0389158108397
aF-335.0297648217865
aF-335.0297648217865
aF-335.0297648217865
aF-335.0081827457545
aF-335.0081827457539
aF-335.0081827457539
aF-335.00236682096033
aF-334.99211208699535
aF-334.9741005615227
aF-334.9741005615227
aF-334.96792713256303
aF-334.96792713256303
aF-334.9645862447736
aF-334.96292480283154
aF-334.95416511899555
aF-334.95416511899555
aF-334.95416511899555
aF-334.95416511899555
aF-334.95416511899555
aF-334.9448683283416
aF-334.9324594681778
aF-334.9065752173128
aF-334.90657521731305
aF-334.8845780929028
aF-334.8845780929028
aF-334.8845780929028
aF-334.8845780929028
aF-334.8699853423499
aF-334.86998534234937
aF-334.86545671477774
aF-334.8431758696768
aF-334.7912673774591
aF-334.755521484977
aF-334.68307255602514
aF-334.68307255602514
aF-334.67466027995727
aF-334.67466027995727
aF-334.67465515874807
aF-334.6746065652091
aF-334.6745398861537
aF-334.6745398861537
aF-334.6731756665986
aF-334.6731756665986
aF-334.6704004561239
aF-334.6704004561239
aF-334.6699445083783
aF-334.6637614864916
aF-334.6637614864916
aF-334.6637614864909
aF-334.6637614864916
aF-334.66025619850893
aF-334.66025619850893
aF-334.65976917347433
aF-334.65976917347433
aF-334.6547885399838
aF-334.6547885399838
aF-334.653057836747
aF-334.6530578367469
aF-334.653057836747
aF-334.6434845916381
aF-334.6434845916381
aF-334.62760440954986
aF-334.61911159387626
aF-334.56711912131436
aF-334.55908974747376
aF-334.55908974747376
aF-334.5502356557757
aF-334.55023565577636
aF-334.52642675297943
aF-334.51877424566646
aF-334.51877424566646
aF-334.51874301599594
aF-334.51874301599594
aF-334.51874301599594
aF-334.50989012358815
aF-334.3608087975691
aF-334.3115983699942
aF-334.3115983699942
aF-334.3115983699942
aF-334.3115696653127
aF-334.3112919119909
aF-334.30322400560993
aF-334.30322400560993
aF-334.2960692703634
aF-334.28201852508147
aF-334.28201852508147
aF-334.280007706435
aF-334.280007706435
aF-334.280007706435
aF-334.2798050681857
aF-334.2798050681857
aF-334.2798050681857
aF-334.24908883385285
aF-334.24175990249324
aF-334.2261795311073
aF-334.22617953110756
aF-334.22617953110733
aF-334.2261795311073
aF-334.17887241633065
aF-334.1524938518804
aF-334.1502118267684
aF-334.1502118267684
aF-334.1502118267684
aF-334.1502118267684
aF-334.15021182676884
aF-334.1502118267684
aF-334.1502118267689
aF-334.1502118267684
aF-334.1502118267684
aF-334.1502118267684
aF-334.15021182676895
aF-334.13710968309425
aF-334.1371096830946
aF-334.1371096830946
aF-334.1361554875042
aF-334.0990439775453
aF-334.0990439775453
aF-334.09904397754485
aF-334.0963029866006
aF-334.0937002886886
aF-334.0937002886877
aF-334.08652934869787
aF-334.08652934869787
aF-334.03955582164014
aF-334.03159285879013
aF-334.0310656108874
aF-334.022518018152
aF-333.997977897317
aF-333.99797789731724
aF-333.9979778973448
aF-333.99797789731707
aF-333.997977897317
aF-333.997977897317
aF-333.997977897317
aF-333.997977897317
aF-333.997977897317
aF-333.997977897317
aF-333.997977897318
aF-333.997977897317
aF-333.997977897317
aF-333.9979778973171
aF-333.9900551353109
aF-333.98308023678214
aF-333.98308023678294
aF-333.98308023678214
aF-333.98308023678214
aF-333.98308023678214
aF-333.98308023678214
aF-333.98308023678214
aF-333.98308023678214
aF-333.98308023678214
aF-333.98308023678214
aF-333.9400956826954
aF-333.9400956826954
aF-333.9400956826957
aF-333.9400956826954
aF-333.9400956826954
aF-333.9400956826954
aF-333.9400956826954
aF-333.94009568269513
aF-333.9400956826958
aF-333.9400956826954
aF-333.94005228213723
aF-333.9400522821369
aF-333.9400522821373
aF-333.94005228213723
aF-333.94005228213723
aF-333.94005228213723
aF-333.9283680431629
aF-333.9283680431627
aF-333.9134214825034
aF-333.9134214825034
aF-333.9134214825034
aF-333.9134214825034
aF-333.8976094114804
aF-333.8975910765434
aF-333.8974519376679
aF-333.8974519376679
aF-333.8974519376679
aF-333.8974519376679
aF-333.86331485112885
aF-333.8633148511289
aF-333.8293128577334
aF-333.8138328166225
aF-333.8138328166225
aF-333.80341776814925
aF-333.80341776814925
aF-333.80341776814925
aF-333.7995578364379
aF-333.79387697330657
aF-333.7871631491294
aF-333.784643124248
aF-333.784643124248
aF-333.784643124248
aF-333.784643124248
aF-333.7841190222256
aF-333.7841190222256
aF-333.7841190222256
aF-333.7841190222256
aF-333.77979508216504
aF-333.5775617338888
aF-333.5775617338888
aF-333.5775617338888
aF-333.55497054298235
aF-333.5549705429822
aF-333.5436111244277
aF-333.5436111244272
aF-333.54361112442695
aF-333.5436111244271
aF-333.5275847090425
aF-333.50945465374986
aF-333.50945465374986
aF-333.50945465374986
aF-333.4884176033879
aF-333.4884176033879
aF-333.487749847947
aF-333.4229195041687
aF-333.4227864505132
aF-333.4227864505132
aF-333.4227864505132
aF-333.40874231641516
aF-333.40874231641476
aF-333.4065170213041
aF-333.4065170213041
aF-333.4065170213041
aF-333.40602025994923
aF-333.40602025995145
aF-333.40251151281944
aF-333.4025115128196
aF-333.4025115128194
aF-333.4025115128194
aF-333.39300583252236
aF-333.39300583252236
aF-333.39300583252236
aF-333.39300583252236
aF-333.39300583252196
aF-333.3929349938762
aF-333.3878981238877
aF-333.3878981238877
aF-333.3878981238897
aF-333.3878981238796
aF-333.36588966099015
aF-333.35626680080003
aF-333.35626680080003
aF-333.3365083588086
aF-333.33380341650167
aF-333.33380341650167
aF-333.32538426412526
aF-333.3253842641277
aF-333.3253842641277
aF-333.3105500121959
aF-333.2970692207034
aF-333.2970692207034
aF-333.2917990573145
aF-333.2740446873387
aF-333.27404468733897
aF-333.2740446873362
aF-333.2717845323232
aF-333.22493391480737
aF-333.2242704409301
aF-333.2242704409301
aF-333.22315200216104
aF-333.2231520021609
aF-333.2231520021609
aF-333.2231520021609
aF-333.2231520021609
aF-333.2231520021609
aF-333.2231520021609
aF-333.2231520021609
aF-333.22315200216116
aF-333.2231520021609
aF-333.22315200216104
aF-333.2231520021609
aF-333.2231520021609
aF-333.2231520021609
aF-333.2231520021609
aF-333.2231044875931
aF-333.2191609526105
aF-333.2191609526107
aF-333.2191609526148
aF-333.2191609526105
aF-333.21916095261065
aF-333.2191609526148
aF-333.2191609526148
aF-333.2191609526148
aF-333.2191609526148
aF-333.2191609526128
aF-333.21916095260997
aF-333.21916095261
aF-333.2191609526128
aF-333.2191609526148
aF-333.21565963375787
aF-333.21565963375787
aF-333.21565963375787
aF-333.21565963375815
aF-333.21565963375787
aF-333.21501112416547
aF-333.21501112416547
aF-333.2102107940936
aF-333.21021079409485
aF-333.2089265446551
aF-333.2089265446551
aF-333.2088903808227
aF-333.2088903808227
aF-333.2088903808246
aF-333.20805745393346
aF-333.20805745393284
aF-333.20805745393346
aF-333.11801882230253
aF-333.1180188223014
aF-333.1180188223014
aF-333.11801882230264
aF-333.1180188223014
aF-333.1180188223014
aF-333.11801882230276
aF-333.1180188223014
aF-333.1180188223014
aF-333.1180188223026
aF-333.1180188223014
aF-333.1180188223014
aF-333.09776952545195
aF-333.0933358433029
aF-333.0933358433029
aF-333.0933358433029
aF-333.0933358433029
aF-333.0933358433029
aF-333.0933358433029
aF-333.0914115206898
aF-333.0914115206896
aF-333.09141152069
aF-333.09141152069003
aF-333.0914115206898
aF-333.0914115206898
aF-333.0914115206898
aF-333.09141152068645
aF-333.0914115206898
aF-333.0914115206898
aF-333.0873019219079
aF-333.08660124252276
aF-333.0866012425232
aF-333.0841590097777
aF-333.0841590097777
aF-333.0605947223387
aF-333.06059472233784
aF-333.05648776129624
aF-333.0564877612962
aF-333.0314605936777
aF-333.0314605936778
aF-333.0314605936778
aF-333.0314605936778
aF-333.0314605936778
aF-333.0314605936778
aF-333.0256004571815
aF-333.0120167493558
aF-333.0120167493558
aF-332.9815477110245
aF-332.9815477110245
aF-332.97194858112744
aF-332.97194858113807
aF-332.9719485811375
aF-332.9719485811375
aF-332.9719485811375
aF-332.9719485811376
aF-332.9719485811375
aF-332.9719485811375
aF-332.97194858114847
aF-332.9719485811228
aF-332.9719485811375
aF-332.9719485811377
aF-332.97194858113744
aF-332.97194858113744
aF-332.9719485811373
aF-332.97194858113335
aF-332.9719485811375
aF-332.9719485811375
aF-332.9719485811374
aF-332.97194858113744
aF-332.9719485811375
aF-332.9719485811375
aF-332.9719485811376
aF-332.97194858114847
aF-332.97194858114847
aF-332.9719485811375
aF-332.97194858113335
aF-332.9719485811375
aF-332.9719485811375
aF-332.97194858113767
aatp39
.