(cnumpy.core.multiarray
_reconstruct
p0
(cnumpy
ndarray
p1
(I0
tp2
S'b'
p3
tp4
Rp5
(I1
(I2
I3
I2
tp6
cnumpy
dtype
p7
(S'f8'
p8
I0
I1
tp9
Rp10
(I3
S'<'
p11
NNNI-1
I-1
I0
tp12
bI00
S'T\xf8\x01\xc2\x97\xd9t\xc0\xd2\x0bs]\x99\x00q\xc0\x1c\x87\x93\x95\xd5ov\xc0\xb2A3\xe1\xde\ry\xc0w\t\xac\x9d\xbfGi\xc0@\n\x86+\xe7\x9di\xc0\x0fa\xa9V\x99%t\xc0\xc2\xbb#\xa3\xe8\xc0p\xc0m`\xa2^\xb7,v\xc0"\xf6\xa6`\xb5\x05y\xc0w\t\xac\x9d\xbfGi\xc0@\n\x86+\xe7\x9di\xc0'
p13
tp14
bg0
(g1
(I0
tp15
g3
tp16
Rp17
(I1
(I2
I3
I2
tp18
g10
I00
S'\x00\x00\x00\x00\xd2\x8e\xd4?\x00\x00\x00\x00\x1a\xfa\xd8?\x00\x00\x00\x00\xe7\xc4\xd8?\x00\x00\x00\x00Fz\xd2?\x00\x00\x00\x00\xb0\xfc\xa9?\x00\x00\x00\x00\xc8)\xaa?\x00\x00\x00\x80=\x94\x08@\x00\x00\x00@J)\x05@\x00\x00\x00\x00\xd4\xf2\xe7?\x00\x00\x00\x80R\x8a\xe1?\x00\x00\x00\x00\xa0]\xae?\x00\x00\x00\x00\xf8\t\xa8?'
p19
tp20
bg0
(g1
(I0
tp21
g3
tp22
Rp23
(I1
(I2
tp24
g10
I00
S'[\x11\x05sb\xb7q\xc0\xfe[\x08\n\x84~n\xc0'
p25
tp26
bg0
(g1
(I0
tp27
g3
tp28
Rp29
(I1
(I2
tp30
g10
I00
S"\x00\x00\x00\xa4\xa4\x132@\x00\x00\x00@\xb7 '@"
p31
tp32
b(lp33
(lp34
F-1918.0
aF-1918.0
aF-1918.0
aF-1308.0
aF-1308.0
aF-1308.0
aF-1224.4265157950204
aF-842.0859125659283
aF-842.0859125659283
aF-842.0
aF-797.1617704491584
aF-776.9682280008236
aF-711.4152853610934
aF-703.4728721312247
aF-669.9676503747671
aF-645.9114430150041
aF-595.7789654303567
aF-568.4167024270693
aF-550.5580327059739
aF-517.7935103989012
aF-510.6436393585314
aF-505.0557570565701
aF-501.7376510538099
aF-494.76280860599076
aF-417.0542696511273
aF-414.0023267865146
aF-412.66064795262355
aF-361.7469097669655
aF-361.2522679500685
aF-352.2317067516135
aF-349.3564448061405
aF-347.29714726589606
aF-346.20212416577823
aF-344.55448581792706
aF-342.8561445647203
aF-338.3092931243992
aF-335.6738089428014
aF-333.71249621333504
aF-329.5313306563901
aF-326.9025209094617
aF-323.8623225563797
aF-318.59590777857744
aF-318.12938322795986
aF-317.1390063472349
aF-315.2317541719708
aF-312.1652822484024
aF-303.8414090306724
aF-303.2030141281329
aF-300.1516769345032
aF-298.44262017492855
aF-296.4568840880028
aF-295.742362741207
aF-294.9943154496972
aF-292.49549166932536
aF-289.93752379159673
aF-289.32666967525375
aF-288.98408153343786
aF-288.51556176987566
aF-287.8615034500167
aF-287.1853647256933
aF-287.03497544932173
aF-286.68091156586775
aF-286.4827402424492
aF-284.9925526197748
aF-284.6040717808494
aF-284.4160875105308
aF-284.323455310185
aF-284.0404857656986
aF-283.87792046845516
aF-283.66291375987294
aF-283.6560265830876
aF-283.6433429155404
aF-283.63948261630907
aF-283.6371885158639
aF-283.636188436755
aF-283.6040676527208
aF-283.6007828448488
aF-283.52896050291037
aF-283.50881432442816
aF-283.5024681897241
aF-283.49096854044757
aF-283.48361740572386
aF-283.466543304311
aF-283.46624769155846
aF-283.4615928813653
aF-283.4615354726754
aF-283.4615354726754
aF-283.4615354726754
aF-283.4615354726754
aF-283.4615354726754
aF-283.4615354726754
aF-283.4615354726754
aF-283.4615354726754
aF-283.4615354726754
aF-283.4615354726754
aF-283.4615354726754
aF-283.4615354726754
aF-283.4615354726754
aF-283.4615354726754
aF-283.4615354726754
aF-283.4615354726754
aF-283.4615354726754
aF-283.4615354726754
aF-283.4615354726754
aF-283.4615354726754
aF-283.4615354726754
aF-283.4615354726754
aF-283.4615354726754
aF-283.4615354726754
aF-283.4615354726754
aF-283.4615354726754
aF-283.4615354726754
aF-283.4615354726754
aF-283.4615354726754
aa(lp35
F-1161.0
aF-1161.0
aF-1161.0
aF-842.3114896652847
aF-841.0
aF-841.0
aF-841.0
aF-756.0
aF-756.0
aF-756.0
aF-735.5829817604663
aF-588.5113163191744
aF-588.5113163191745
aF-583.2183220620918
aF-573.8016425701866
aF-538.6783821392102
aF-538.6783821392102
aF-538.67838213921
aF-525.9460932301246
aF-518.607528771709
aF-518.6075287717089
aF-460.78514300059004
aF-449.9501877359939
aF-410.6497527889529
aF-406.3287363939165
aF-404.31336970469835
aF-392.0076301891625
aF-366.3523536203834
aF-363.92151634994167
aF-362.1048824083995
aF-337.7400931858999
aF-336.4756272173428
aF-332.58979056748353
aF-313.11747552926204
aF-303.6731585842605
aF-299.55808646810056
aF-280.36849472074493
aF-278.045785414574
aF-276.3833408669655
aF-275.8183116356555
aF-273.39978621741307
aF-265.4809247779288
aF-253.56057892632015
aF-252.16533744685924
aF-252.16533744685918
aF-252.01261637256715
aF-248.6835585701181
aF-248.6835585701181
aF-248.5515790623287
aF-248.5515790623287
aF-248.5229248707181
aF-248.40843952125934
aF-248.40843952125925
aF-248.34875964120175
aF-248.28109576822627
aF-248.28109576822632
aF-245.0408419705667
aF-245.01253506774665
aF-245.01253506774663
aF-244.82373455201986
aF-244.79943279772135
aF-244.2731907044513
aF-244.25850616703391
aF-244.2585061670338
aF-244.06018397674103
aF-244.05529128880954
aF-243.95361806519207
aF-243.95361806519207
aF-243.95361806519207
aF-243.95361806519207
aF-243.95361806519207
aF-243.95361806519207
aF-243.95361806519207
aF-243.95361806519207
aF-243.95361806519207
aF-243.95361806519207
aF-243.95361806519207
aF-243.95361806519207
aF-243.95361806519207
aF-243.95361806519207
aF-243.95361806519207
aF-243.95361806519207
aF-243.95361806519207
aF-243.95361806519207
aF-243.95361806519207
aF-243.95361806519207
aF-243.95361806519207
aF-243.95361806519207
aF-243.95361806519207
aF-243.95361806519207
aF-243.95361806519207
aF-243.95361806519207
aF-243.95361806519207
aF-243.95361806519207
aF-243.95361806519207
aF-243.95361806519207
aF-243.95361806519207
aF-243.95361806519207
aF-243.95361806519207
aF-243.95361806519207
aF-243.95361806519207
aatp36
.