(cnumpy.core.multiarray
_reconstruct
p0
(cnumpy
ndarray
p1
(I0
tp2
S'b'
p3
tp4
Rp5
(I1
(I10
I3
I5
tp6
cnumpy
dtype
p7
(S'f8'
p8
I0
I1
tp9
Rp10
(I3
S'<'
p11
NNNI-1
I-1
I0
tp12
bI00
S'\x00\x00\x00\x00\x00\x00\x00\x00\x00\x00\x00\x00\x00\x00\x00\x00\x00\x00\x00\x00\x00\x00\x00\x00\x00\x00\x00\x00\x00\x00\x00\x00\x00\x00\x00\x00\x00\x00\x00\x00\x00\x00\x00\x00\x00\x00\x00\x00\x00\x00\x00\x00\x00\x00\x00\x00\x00\x00\x00\x00\x00\x00\x00\x00\x00\x00\x00\x00\x00\x00\x00\x00\x00\x00\x00\x00\x00\x00\x00\x00\x00\x00\x00\x00\x00\x00\x00\x00\x00\x00\x00\x00\x00\x00\x00\x00\x00\x00\x00\x00\x00\x00\x00\x00\x00\x00\x00\x00\x00\x00\x00\x00\x00\x00\x00\x00\x00\x00\x00\x00\x00\x00\x00\x00\x00\x00\x00\x00\x00\x00\x00\x00\x00\x00\x00\x00\x00\x00\x00\x00\x00\x00\x00\x00\x00\x00\x00\x00\x00\x00\x00\x00\x00\x00\x00\x00\x00\x00\x00\x00\x00\x00\x00\x00\x00\x00\x00\x00\x00\x00\x00\x00\x00\x00\x00\x00\x00\x00\x00\x00\x00\x00\x00\x00\x00\x00\x00\x00\x00\x00\x00\x00\x00\x00\x00\x00\x00\x00\x00\x00\x00\x00\x00\x00\x00\x00\x00\x00\x00\x00\x00\x00\x00\x00\x00\x00\x00\x00\x00\x00\x00\x00\x00\x00\x00\x00\x00\x00\x00\x00\x00\x00\x00\x00\x00\x00\x00\x00\x00\x00\x00\x00\x00\x00\x00\x00\x00\x00\x00\x00\x00\x00\x00\x00\x00\x00\x00\x00\x00\x00\x00\x00\x00\x00\x00\x00\x00\x00\x00\x00\x00\x00\x00\x00\x00\x00\x00\x00\x00\x00\x00\x00\x00\x00\x00\x00\x00\x00\x00\x00\x00\x00\x00\x00\x00\x00\x00\x00\x00\x00\x00\x00\x00\x00\x00\x00\x00\x00\x00\x00\x00\x00\x00\x00\x00\x00\x00\x00\x00\x00\x00\x00\x00\x00\x00\x00\x00\x00\x00\x00\x00\x00\x00\x00\x00\x00\x00\x00\x00\x00\x00\x00\x00\x00\x00\x00\x00\x00\x00\x00\x00\x00\x00\x00\x00\x00\x00\x00\x00\x00\x00\x00\x00\x00\x00\x00\x00\x00\x00\x00\x00\x00\x00\x00\x00\x00\x00\x00\x00\x00\x00\x00\x00\x00\x00\x00\x00\x00\x00\x00\x00\x00\x00\x00\x00\x00\x00\x00\x00\x00\x00\x00\x00\x00\x00\x00\x00\x00\x00\x00\x00\x00\x00\x00\x00\x00\x00\x00\x00\x00\x00\x00\x00\x00\x00\x00\x00\x00\x00\x00\x00\x00\x00\x00\x00\x00\x00\x00\x00\x00\x00\x00\x00\x00\x00\x00\x00\x00\x00\x00\x00\x00\x00\x00\x00\x00\x00\x00\x00\x00\x00\x00\x00\x00\x00\x00\x00\x00\x00\x00\x00\x00\x00\x00\x00\x00\x00\x00\x00\x00\x00\x00\x00\x00\x00\x00\x00\x00\x00\x00\x00\x00\x00\x00\x00\x00\x00\x00\x00\x00\x00\x00\x00\x00\x00\x00\x00\x00\x00\x00\x00\x00\x00\x00\x00\x00\x00\x00\x00\x00\x00\x00\x00\x00\x00\x00\x00\x00\x00\x00\x00\x00\x00\x00\x00\x00\x00\x00\x00\x00\x00\x00\x00\x00\x00\x00\x00\x00\x00\x00\x00\x00\x00\x00\x00\x00\x00\x00\x00\x00\x00\x00\x00\x00\x00\x00\x00\x00\x00\x00\x00\x00\x00\x00\x00\x00\x00\x00\x00\x00\x00\x00\x00\x00\x00\x00\x00\x00\x00\x00\x00\x00\x00\x00\x00\x00\x00\x00\x00\x00\x00\x00\x00\x00\x00\x00\x00\x00\x00\x00\x00\x00\x00\x00\x00\x00\x00\x00\x00\x00\x00\x00\x00\x00\x00\x00\x00\x00\x00\x00\x00\x00\x00\x00\x00\x00\x00\x00\x00\x00\x00\x00\x00\x00\x00\x00\x00\x00\x00\x00\x00\x00\x00\x00\x00\x00\x00\x00\x00\x00\x00\x00\x00\x00\x00\x00\x00\x00\x00\x00\x00\x00\x00\x00\x00\x00\x00\x00\x00\x00\x00\x00\x00\x00\x00\x00\x00\x00\x00\x00\x00\x00\x00\x00\x00\x00\x00\x00\x00\x00\x00\x00\x00\x00\x00\x00\x00\x00\x00\x00\x00\x00\x00\x00\x00\x00\x00\x00\x00\x00\x00\x00\x00\x00\x00\x00\x00\x00\x00\x00\x00\x00\x00\x00\x00\x00\x00\x00\x00\x00\x00\x00\x00\x00\x00\x00\x00\x00\x00\x00\x00\x00\x00\x00\x00\x00\x00\x00\x00\x00\x00\x00\x00\x00\x00\x00\x00\x00\x00\x00\x00\x00\x00\x00\x00\x00\x00\x00\x00\x00\x00\x00\x00\x00\x00\x00\x00\x00\x00\x00\x00\x00\x00\x00\x00\x00\x00\x00\x00\x00\x00\x00\x00\x00\x00\x00\x00\x00\x00\x00\x00\x00\x00\x00\x00\x00\x00\x00\x00\x00\x00\x00\x00\x00\x00\x00\x00\x00\x00\x00\x00\x00\x00\x00\x00\x00\x00\x00\x00\x00\x00\x00\x00\x00\x00\x00\x00\x00\x00\x00\x00\x00\x00\x00\x00\x00\x00\x00\x00\x00\x00\x00\x00\x00\x00\x00\x00\x00\x00\x00\x00\x00\x00\x00\x00\x00\x00\x00\x00\x00\x00\x00\x00\x00\x00\x00\x00\x00\x00\x00\x00\x00\x00\x00\x00\x00\x00\x00\x00\x00\x00\x00\x00\x00\x00\x00\x00\x00\x00\x00\x00\x00\x00\x00\x00\x00\x00\x00\x00\x00\x00\x00\x00\x00\x00\x00\x00\x00\x00\x00\x00\x00\x00\x00\x00\x00\x00\x00\x00\x00\x00\x00\x00\x00\x00\x00\x00\x00\x00\x00\x00\x00\x00\x00\x00\x00\x00\x00\x00\x00\x00\x00\x00\x00\x00\x00\x00\x00\x00\x00\x00\x00\x00\x00\x00\x00\x00\x00\x00\x00\x00\x00\x00\x00\x00\x00\x00\x00\x00\x00\x00\x00\x00\x00\x00\x00\x00\x00\x00\x00\x00\x00\x00\x00\x00\x00\x00\x00\x00\x00\x00\x00\x00\x00\x00\x00\x00\x00\x00\x00\x00\x00\x00\x00\x00\x00\x00\x00\x00\x00\x00\x00\x00\x00\x00\x00\x00\x00\x00\x00\x00\x00\x00\x00\x00\x00\x00\x00\x00\x00\x00\x00\x00\x00\x00\x00\x00\x00\x00\x00\x00\x00\x00\x00\x00\x00\x00\x00\x00\x00\x00\x00\x00\x00\x00\x00\x00\x00\x00\x00\x00\x00\x00\x00\x00\x00\x00\x00\x00\x00\x00\x00\x00\x00\x00\x00\x00\x00\x00\x00\x00\x00\x00\x00\x00\x00\x00\x00\x00\x00\x00\x00\x00\x00\x00\x00\x00\x00\x00\x00\x00\x00\x00\x00\x00\x00\x00\x00\x00\x00\x00\x00\x00\x00\x00\x00\x00\x00\x00\x00\x00\x00\x00\x00\x00\x00\x00\x00\x00\x00\x00\x00\x00\x00\x00\x00\x00\x00\x00\x00\x00\x00\x00\x00\x00\x00\x00\x00\x00\x00\x00\x00\x00\x00\x00\x00\x00\x00\x00\x00\x00\x00\x00\x00\x00\x00\x00\x00\x00\x00\x00\x00\x00\x00\x00\x00\x00\x00\x00\x00'
p13
tp14
bg0
(g1
(I0
tp15
g3
tp16
Rp17
(I1
(I10
I3
I5
tp18
g10
I00
S'\x00\x00\x00\x00\x00\x00\x00\x00\x00\x00\x00\x00\x00\x00\x00\x00\x00\x00\x00\x00\x00\x00\x00\x00\x00\x00\x00\x00\x00\x00\x00\x00\x00\x00\x00\x00\x00\x00\x00\x00\x00\x00\x00\x00\x00\x00\x00\x00\x00\x00\x00\x00\x00\x00\x00\x00\x00\x00\x00\x00\x00\x00\x00\x00\x00\x00\x00\x00\x00\x00\x00\x00\x00\x00\x00\x00\x00\x00\x00\x00\x00\x00\x00\x00\x00\x00\x00\x00\x00\x00\x00\x00\x00\x00\x00\x00\x00\x00\x00\x00\x00\x00\x00\x00\x00\x00\x00\x00\x00\x00\x00\x00\x00\x00\x00\x00\x00\x00\x00\x00\x00\x00\x00\x00\x00\x00\x00\x00\x00\x00\x00\x00\x00\x00\x00\x00\x00\x00\x00\x00\x00\x00\x00\x00\x00\x00\x00\x00\x00\x00\x00\x00\x00\x00\x00\x00\x00\x00\x00\x00\x00\x00\x00\x00\x00\x00\x00\x00\x00\x00\x00\x00\x00\x00\x00\x00\x00\x00\x00\x00\x00\x00\x00\x00\x00\x00\x00\x00\x00\x00\x00\x00\x00\x00\x00\x00\x00\x00\x00\x00\x00\x00\x00\x00\x00\x00\x00\x00\x00\x00\x00\x00\x00\x00\x00\x00\x00\x00\x00\x00\x00\x00\x00\x00\x00\x00\x00\x00\x00\x00\x00\x00\x00\x00\x00\x00\x00\x00\x00\x00\x00\x00\x00\x00\x00\x00\x00\x00\x00\x00\x00\x00\x00\x00\x00\x00\x00\x00\x00\x00\x00\x00\x00\x00\x00\x00\x00\x00\x00\x00\x00\x00\x00\x00\x00\x00\x00\x00\x00\x00\x00\x00\x00\x00\x00\x00\x00\x00\x00\x00\x00\x00\x00\x00\x00\x00\x00\x00\x00\x00\x00\x00\x00\x00\x00\x00\x00\x00\x00\x00\x00\x00\x00\x00\x00\x00\x00\x00\x00\x00\x00\x00\x00\x00\x00\x00\x00\x00\x00\x00\x00\x00\x00\x00\x00\x00\x00\x00\x00\x00\x00\x00\x00\x00\x00\x00\x00\x00\x00\x00\x00\x00\x00\x00\x00\x00\x00\x00\x00\x00\x00\x00\x00\x00\x00\x00\x00\x00\x00\x00\x00\x00\x00\x00\x00\x00\x00\x00\x00\x00\x00\x00\x00\x00\x00\x00\x00\x00\x00\x00\x00\x00\x00\x00\x00\x00\x00\x00\x00\x00\x00\x00\x00\x00\x00\x00\x00\x00\x00\x00\x00\x00\x00\x00\x00\x00\x00\x00\x00\x00\x00\x00\x00\x00\x00\x00\x00\x00\x00\x00\x00\x00\x00\x00\x00\x00\x00\x00\x00\x00\x00\x00\x00\x00\x00\x00\x00\x00\x00\x00\x00\x00\x00\x00\x00\x00\x00\x00\x00\x00\x00\x00\x00\x00\x00\x00\x00\x00\x00\x00\x00\x00\x00\x00\x00\x00\x00\x00\x00\x00\x00\x00\x00\x00\x00\x00\x00\x00\x00\x00\x00\x00\x00\x00\x00\x00\x00\x00\x00\x00\x00\x00\x00\x00\x00\x00\x00\x00\x00\x00\x00\x00\x00\x00\x00\x00\x00\x00\x00\x00\x00\x00\x00\x00\x00\x00\x00\x00\x00\x00\x00\x00\x00\x00\x00\x00\x00\x00\x00\x00\x00\x00\x00\x00\x00\x00\x00\x00\x00\x00\x00\x00\x00\x00\x00\x00\x00\x00\x00\x00\x00\x00\x00\x00\x00\x00\x00\x00\x00\x00\x00\x00\x00\x00\x00\x00\x00\x00\x00\x00\x00\x00\x00\x00\x00\x00\x00\x00\x00\x00\x00\x00\x00\x00\x00\x00\x00\x00\x00\x00\x00\x00\x00\x00\x00\x00\x00\x00\x00\x00\x00\x00\x00\x00\x00\x00\x00\x00\x00\x00\x00\x00\x00\x00\x00\x00\x00\x00\x00\x00\x00\x00\x00\x00\x00\x00\x00\x00\x00\x00\x00\x00\x00\x00\x00\x00\x00\x00\x00\x00\x00\x00\x00\x00\x00\x00\x00\x00\x00\x00\x00\x00\x00\x00\x00\x00\x00\x00\x00\x00\x00\x00\x00\x00\x00\x00\x00\x00\x00\x00\x00\x00\x00\x00\x00\x00\x00\x00\x00\x00\x00\x00\x00\x00\x00\x00\x00\x00\x00\x00\x00\x00\x00\x00\x00\x00\x00\x00\x00\x00\x00\x00\x00\x00\x00\x00\x00\x00\x00\x00\x00\x00\x00\x00\x00\x00\x00\x00\x00\x00\x00\x00\x00\x00\x00\x00\x00\x00\x00\x00\x00\x00\x00\x00\x00\x00\x00\x00\x00\x00\x00\x00\x00\x00\x00\x00\x00\x00\x00\x00\x00\x00\x00\x00\x00\x00\x00\x00\x00\x00\x00\x00\x00\x00\x00\x00\x00\x00\x00\x00\x00\x00\x00\x00\x00\x00\x00\x00\x00\x00\x00\x00\x00\x00\x00\x00\x00\x00\x00\x00\x00\x00\x00\x00\x00\x00\x00\x00\x00\x00\x00\x00\x00\x00\x00\x00\x00\x00\x00\x00\x00\x00\x00\x00\x00\x00\x00\x00\x00\x00\x00\x00\x00\x00\x00\x00\x00\x00\x00\x00\x00\x00\x00\x00\x00\x00\x00\x00\x00\x00\x00\x00\x00\x00\x00\x00\x00\x00\x00\x00\x00\x00\x00\x00\x00\x00\x00\x00\x00\x00\x00\x00\x00\x00\x00\x00\x00\x00\x00\x00\x00\x00\x00\x00\x00\x00\x00\x00\x00\x00\x00\x00\x00\x00\x00\x00\x00\x00\x00\x00\x00\x00\x00\x00\x00\x00\x00\x00\x00\x00\x00\x00\x00\x00\x00\x00\x00\x00\x00\x00\x00\x00\x00\x00\x00\x00\x00\x00\x00\x00\x00\x00\x00\x00\x00\x00\x00\x00\x00\x00\x00\x00\x00\x00\x00\x00\x00\x00\x00\x00\x00\x00\x00\x00\x00\x00\x00\x00\x00\x00\x00\x00\x00\x00\x00\x00\x00\x00\x00\x00\x00\x00\x00\x00\x00\x00\x00\x00\x00\x00\x00\x00\x00\x00\x00\x00\x00\x00\x00\x00\x00\x00\x00\x00\x00\x00\x00\x00\x00\x00\x00\x00\x00\x00\x00\x00\x00\x00\x00\x00\x00\x00\x00\x00\x00\x00\x00\x00\x00\x00\x00\x00\x00\x00\x00\x00\x00\x00\x00\x00\x00\x00\x00\x00\x00\x00\x00\x00\x00\x00\x00\x00\x00\x00\x00\x00\x00\x00\x00\x00\x00\x00\x00\x00\x00\x00\x00\x00\x00\x00\x00\x00\x00\x00\x00\x00\x00\x00\x00\x00\x00\x00\x00\x00\x00\x00\x00\x00\x00\x00\x00\x00\x00\x00\x00\x00\x00\x00\x00\x00\x00\x00\x00\x00\x00\x00\x00\x00\x00\x00\x00\x00\x00\x00\x00\x00\x00\x00\x00\x00\x00\x00\x00\x00\x00\x00\x00\x00\x00\x00\x00\x00\x00\x00\x00\x00\x00\x00\x00\x00\x00\x00\x00\x00\x00\x00\x00\x00\x00\x00\x00\x00\x00\x00\x00\x00\x00\x00\x00\x00\x00\x00\x00\x00\x00\x00\x00\x00\x00\x00\x00\x00\x00\x00\x00\x00\x00\x00\x00\x00\x00\x00\x00\x00\x00\x00\x00\x00\x00\x00\x00\x00\x00\x00\x00\x00\x00\x00\x00\x00\x00\x00\x00\x00\x00\x00\x00\x00\x00\x00'
p19
tp20
bg0
(g1
(I0
tp21
g3
tp22
Rp23
(I1
(I5
tp24
g10
I00
S'\x9e\x0eN\x83C\xd1e\xc0\xaa\xd6-\x18\x07\x83x\xc0\xbe\xe6\xfa\xf9\x04*[\xc0Y\xe8\x9f\xb0\x9dwy\xc0P\x8b\xa7\xb1\xad>i\xc0'
p25
tp26
bg0
(g1
(I0
tp27
g3
tp28
Rp29
(I1
(I5
tp30
g10
I00
S'\x00\x00\x00+\x17\xdfV@\x00\x00\x00\x12\xe8\xd0m@\x00\x00\x00\x18)\xa5S@\x00\x00\x00\xc2\xdb\xccS@\x00\x00 \xe8,\x15\x83@'
p31
tp32
b(lp33
(lp34
F-1901.0
aF-1901.0
aF-1901.0
aF-1627.0
aF-1627.0
aF-1627.0
aF-1434.0862414313303
aF-899.0
aF-899.0
aF-899.0
aF-892.0
aF-892.0
aF-892.0
aF-877.0
aF-877.0
aF-877.0
aF-848.2347556893578
aF-635.7917544166014
aF-628.5061724208286
aF-613.3170905926434
aF-605.7968910860748
aF-601.9480185847677
aF-599.0510199790857
aF-595.23914693606
aF-566.1945634670024
aF-557.7917929386746
aF-554.1908619584794
aF-552.8434114230098
aF-548.7059240670106
aF-542.9538456543588
aF-525.902893364349
aF-523.8868537853045
aF-517.1646997850953
aF-503.25627822351447
aF-462.04737541928864
aF-454.2403019252902
aF-432.10089221045365
aF-420.081019902743
aF-409.38725737862865
aF-403.0971414875165
aF-400.9750571512602
aF-382.10539799561724
aF-377.16005503081254
aF-356.18545057362496
aF-332.81785497135
aF-322.0553808067859
aF-313.17117293354806
aF-307.60095852645685
aF-293.36347502064535
aF-291.9714332341957
aF-287.39235980872144
aF-286.2495415835197
aF-285.58331110124374
aF-284.5386053984097
aF-275.9556443264206
aF-269.29933238411115
aF-266.2716065367025
aF-264.78550640367035
aF-255.1841042805457
aF-249.5913548608679
aF-244.89471558490052
aF-243.27600873613946
aF-240.40636696742072
aF-234.3090593328004
aF-233.65247954054948
aF-232.52201454104448
aF-230.13372660532698
aF-226.70708935005788
aF-220.91686112111432
aF-217.8401090464114
aF-214.9294541610519
aF-211.4817319148314
aF-208.5777303036373
aF-207.3247862842771
aF-206.177616448342
aF-204.66205228668005
aF-202.6154130514478
aF-202.30187735027158
aF-198.44925107331088
aF-198.10339389140861
aF-195.01173364345775
aF-194.4902659077374
aF-193.84106537396363
aF-193.6120923374162
aF-192.44941550218152
aF-192.259896041601
aF-191.95322069337269
aF-186.81490079272237
aF-185.70508527083362
aF-185.26112311912485
aF-185.2113773606313
aF-184.82776853760492
aF-184.1849437614457
aF-183.6496222689654
aF-183.03255584625563
aF-182.9068644686378
aF-182.30621493079138
aF-182.04011997054218
aF-181.49378257764752
aF-181.13634163612232
aF-181.00654013371184
aF-180.4358035621364
aF-180.04218876049964
aF-179.56090326101415
aF-179.43466754243767
aF-179.37152492677657
aF-179.18058903048833
aF-179.13776715062704
aF-179.11943174852854
aF-179.11352166980478
aF-179.1070481688813
aF-179.0445280068336
aF-178.8823864992937
aF-178.8232007238423
aF-178.8232007238423
aF-178.7704037106187
aF-178.71792147152638
aF-178.44899095195672
aF-178.37992136755557
aF-178.08228856649183
aF-177.9124207089663
aF-177.7681341004745
aF-177.63134770453473
aF-177.22144987226383
aF-177.2023457478453
aF-177.10159957513815
aF-176.98526542070493
aF-176.870572729717
aF-176.8390346129915
aF-176.81899600509084
aF-176.78138746098622
aF-176.74517919144046
aF-176.6406775662401
aF-176.5906887980128
aF-176.55510666251152
aF-176.50952722199807
aF-176.36829084409982
aF-176.2640618171729
aF-176.18944214484256
aF-176.16409177092453
aF-176.14767630927588
aF-176.0992686309731
aF-176.05653484184208
aF-175.90297700545636
aF-175.7020396293182
aF-175.59944987823758
aF-175.59944987823758
aF-175.5895889488436
aF-175.42085916855802
aF-175.3899742926046
aF-175.28890295019286
aF-175.24263660944123
aF-175.21753420594888
aF-175.2018913196954
aF-175.2018913196954
aF-175.19859446394227
aF-175.11056286514798
aF-175.1074073459052
aF-175.09858602025696
aF-175.07313960903082
aF-175.0720270924289
aF-175.008297553451
aF-175.00176682656993
aF-174.9647385773365
aF-174.93853074271777
aF-174.91304261202382
aF-174.90840203556095
aF-174.83800377483368
aF-174.83431245661083
aF-174.819456697493
aF-174.79516826761008
aF-174.78706899361669
aF-174.7804086524699
aF-174.78038899191452
aF-174.75886808650688
aF-174.74831173547238
aF-174.73785549550934
aF-174.71396752534332
aF-174.71374283149828
aF-174.70062685414578
aF-174.70062685414578
aF-174.65712374758854
aF-174.65712374758854
aF-174.652652779142
aF-174.6461765779098
aF-174.6104665163853
aF-174.6050240603463
aF-174.5907195916259
aF-174.58160126418448
aF-174.57050361772184
aF-174.56887871506316
aF-174.5600745704379
aF-174.5600745704379
aF-174.55975064735173
aF-174.55863562708342
aF-174.558098016961
aF-174.556408141979
aF-174.55404790661802
aF-174.54902479823838
aF-174.5436026566194
aF-174.53949132199818
aF-174.53949132199827
aF-174.5394913219982
aF-174.53949132199813
aF-174.5394913219979
aF-174.5394913219979
aF-174.5394913219979
aF-174.5394913219979
aF-174.5394913219979
aF-174.5394913219979
aF-174.5394913219979
aF-174.5394913219979
aF-174.5394913219979
aF-174.5394913219979
aF-174.5394913219979
aF-174.5394913219979
aF-174.5394913219979
aF-174.5394913219979
aF-174.5394913219979
aF-174.5394913219979
aF-174.5394913219979
aF-174.5394913219979
aF-174.5394913219979
aF-174.5394913219979
aF-174.5394913219979
aF-174.5394913219979
aF-174.5394913219979
aF-174.5394913219979
aF-174.5394913219979
aa(lp35
F-1436.0
aF-1436.0
aF-1436.0
aF-1346.0
aF-1346.0
aF-1346.0
aF-1120.5493505616655
aF-929.3061508009516
aF-847.2320962347493
aF-797.3502142441124
aF-704.2676405452817
aF-672.2607300985445
aF-664.727775252183
aF-660.3793016970288
aF-653.1435760638034
aF-618.4246811923791
aF-580.025752305098
aF-568.2137198109718
aF-567.6753728066564
aF-567.6753728066564
aF-566.4884154139489
aF-561.0507869821979
aF-557.9394931026503
aF-557.9394931026501
aF-557.6431463545327
aF-552.6205960140649
aF-549.4946175016371
aF-548.4599266072745
aF-547.7245562162066
aF-543.6675064117798
aF-539.4099942953594
aF-531.5546066086206
aF-521.3648798872258
aF-518.4307240274414
aF-510.1647023482899
aF-510.16470234829006
aF-498.8789895114235
aF-496.30549107761743
aF-492.3499709986458
aF-487.3209025354939
aF-485.63715835011254
aF-485.14940590492563
aF-480.59392296870806
aF-469.6819398390547
aF-467.93873206361457
aF-465.950141165929
aF-461.9340667459489
aF-460.34700177379165
aF-457.112757262454
aF-456.2388542360697
aF-455.0727455503375
aF-453.9499062445725
aF-452.77882201920886
aF-449.02184335213764
aF-447.67836896109407
aF-446.41333130499424
aF-445.87742469668467
aF-442.9783814437637
aF-440.04942619183873
aF-436.08793934395214
aF-433.0863114282294
aF-431.7345651018426
aF-431.0566532669138
aF-429.22733546623994
aF-428.7299268546778
aF-428.3852547173032
aF-427.70960771854277
aF-427.0604150236808
aF-426.2696702676473
aF-425.5303060278263
aF-424.71307617889784
aF-424.2400639202014
aF-422.9811735372919
aF-421.75436122547796
aF-421.6471965998524
aF-420.61394668359543
aF-419.9462247995464
aF-419.537868429689
aF-419.21904105544223
aF-418.9808578667583
aF-418.90376026872497
aF-418.6184865944377
aF-418.2985057347438
aF-418.0478587619826
aF-417.1631666877819
aF-416.6312063677997
aF-414.50446478207914
aF-413.39687113949054
aF-412.0968667760316
aF-411.49984157243176
aF-411.1135268969671
aF-409.703935089808
aF-408.0701794138786
aF-407.76142207117783
aF-406.9268689042651
aF-406.2073235806828
aF-405.5669810800328
aF-404.51732274734616
aF-404.51732274734616
aF-404.3177226406842
aF-403.85543892637884
aF-403.51174338878246
aF-403.0693388346539
aF-402.7945831307414
aF-402.5457527378904
aF-402.37085197013175
aF-402.2829841479937
aF-402.09732526053165
aF-401.9123345174484
aF-401.7804785262887
aF-401.67953254642487
aF-401.59477154314015
aF-401.3024227925406
aF-401.01872904442416
aF-400.7089499080464
aF-400.4539978224872
aF-400.33141493036663
aF-400.20720809665875
aF-400.16027507972115
aF-400.1101037311044
aF-399.76216412097534
aF-399.41861959043524
aF-399.2796601530051
aF-398.84403597231875
aF-398.76005459454535
aF-398.5349116416161
aF-398.5349116416161
aF-398.29509120651113
aF-398.2540712027785
aF-398.08498872074426
aF-397.97110051064317
aF-397.7023259616155
aF-397.63545832488387
aF-397.5365680782417
aF-397.53564836145705
aF-397.513333676224
aF-397.4921078857012
aF-397.4656443304036
aF-397.3469273984462
aF-397.11479322751626
aF-397.07051917918903
aF-397.0297910046536
aF-396.9592987910424
aF-396.8975552305388
aF-396.8975552305388
aF-396.8820883347889
aF-396.83833146408523
aF-396.8287761796342
aF-396.8287761796342
aF-396.5980552589209
aF-396.4605143053323
aF-396.3422527022995
aF-396.2202771259713
aF-396.00834994299873
aF-395.83484068665325
aF-395.7023178073256
aF-395.7023178073256
aF-395.51668821218055
aF-395.4697397723067
aF-395.22777481527834
aF-395.02781233334673
aF-395.01452067711
aF-394.9889365539689
aF-394.984061571779
aF-394.79662639345867
aF-394.6746082503498
aF-394.5857158359094
aF-394.49240632183614
aF-394.47590034032265
aF-394.4190457843362
aF-394.31015479447854
aF-394.25128969296316
aF-394.1101915052366
aF-394.1037110339026
aF-394.06112858072754
aF-393.96372977261643
aF-393.939470023528
aF-393.9024802777866
aF-393.86689338669834
aF-393.745416828277
aF-393.71768943925736
aF-393.69444099201917
aF-393.682418331863
aF-393.64795305221816
aF-393.5809427661653
aF-393.52682160597794
aF-393.45771125703436
aF-393.40522685154326
aF-393.40522685154326
aF-393.38588186948067
aF-393.3770315211417
aF-393.35871901376333
aF-393.3369404755335
aF-393.32565319293013
aF-393.2929019870802
aF-393.2328445281743
aF-393.22347704156124
aF-393.19080008953387
aF-393.190238440091
aF-393.1101463397678
aF-393.05647852788843
aF-393.0058610216468
aF-393.0058610216468
aF-392.96586466565685
aF-392.8793830763389
aF-392.7730804332235
aF-392.7635103125653
aF-392.741401273819
aF-392.741401273819
aF-392.741401273819
aF-392.71674498593035
aF-392.65448436280053
aF-392.65448436280053
aF-392.65448436280053
aF-392.63850137130765
aF-392.6130870391376
aF-392.58230347702585
aF-392.582213266746
aF-392.5805812694214
aF-392.55539171899875
aF-392.5351479122654
aF-392.5113730456757
aF-392.4974787587408
aF-392.475950110095
aF-392.475950110095
aF-392.4624283333323
aF-392.4130445806277
aF-392.399162899443
aF-392.39326894132853
aF-392.3811487009851
aF-392.37793764443023
aF-392.3680532471132
aF-392.3680532471132
aF-392.3631378048536
aF-392.35255241125225
aF-392.3344341844839
aF-392.33257172846857
aF-392.32548900362553
aF-392.32548900362553
aF-392.32548900362553
aF-392.32117651653965
aF-392.32117651653965
aF-392.3186456558903
aF-392.3170225183862
aF-392.3170225183862
aF-392.31246144926104
aF-392.3118421296545
aF-392.3118421296545
aF-392.30713311781454
aF-392.2719725533958
aF-392.2719725533958
aF-392.2719725533958
aF-392.2719725533958
aF-392.2719725533958
aF-392.2618155061776
aF-392.24815938330494
aF-392.2460425244738
aF-392.2460425244738
aF-392.2379611191267
aF-392.23401713988693
aF-392.23315456228056
aF-392.23315456228056
aF-392.23315456228056
aF-392.2329717240605
aF-392.2329717240605
aF-392.2319010999496
aF-392.2319010999496
aF-392.23040887269235
aF-392.2286526188671
aF-392.2248590924204
aF-392.2248590924204
aF-392.22201363791595
aF-392.2214527980653
aF-392.2207012441039
aF-392.2206690219844
aF-392.220378144911
aF-392.220378144911
aF-392.21872503283134
aF-392.2147793703934
aF-392.2134730930627
aF-392.2134730930627
aF-392.21211297097364
aF-392.2104613957527
aF-392.2104613957527
aF-392.2104613957527
aF-392.2104613957527
aF-392.2104613957527
aF-392.2104613957527
aF-392.2104613957527
aF-392.20664846527694
aF-392.20578168289757
aF-392.20578168289757
aF-392.20521125970936
aF-392.2033372516806
aF-392.20264574645694
aF-392.20264574645694
aF-392.2006710449371
aF-392.1994995615537
aF-392.1991456396585
aF-392.1991456396585
aF-392.19715617375516
aF-392.19715617375516
aF-392.1969363624213
aF-392.1965855376122
aF-392.19595662923973
aF-392.19595662923973
aF-392.1953584762742
aF-392.1950863163205
aF-392.19500617776436
aF-392.19462375932204
aF-392.19462375932204
aF-392.19369910091604
aF-392.19295137280176
aF-392.19295137280176
aF-392.19285426735075
aF-392.1925590487709
aF-392.19244370688625
aF-392.19244370688625
aF-392.1924187094516
aF-392.1924187094516
aF-392.1921353982853
aF-392.19183953294686
aF-392.19183953294686
aF-392.19124792256474
aF-392.19124792256474
aF-392.1909389348645
aF-392.19056966324706
aF-392.19056966324706
aF-392.19013122288965
aF-392.1900792126306
aF-392.1900792126306
aF-392.1900792126306
aF-392.1899856774975
aF-392.1899856774975
aF-392.18985519274526
aF-392.1895777611979
aF-392.189442470567
aF-392.18941694581946
aF-392.18936779196736
aF-392.1893329016219
aF-392.1893069788072
aF-392.1892898756516
aF-392.1892898756516
aF-392.1892785169884
aF-392.1892545605149
aF-392.1892545605149
aF-392.1892545605149
aF-392.18923204332026
aF-392.18923204332043
aF-392.18923204332026
aF-392.18923204332043
aF-392.18923204332043
aF-392.18923204332043
aF-392.18923204332043
aF-392.18923204332043
aF-392.18923204332043
aF-392.18923204332043
aF-392.18923204332043
aF-392.18923204332043
aF-392.18923204332043
aF-392.18923204332043
aF-392.18923204332043
aF-392.18923204332043
aF-392.18923204332043
aa(lp36
F-1320.0
aF-1320.0
aF-1320.0
aF-1173.0
aF-1173.0
aF-1173.0
aF-1047.9745099603185
aF-944.0
aF-944.0
aF-944.0
aF-850.0
aF-850.0
aF-850.0
aF-813.5556799553663
aF-739.0
aF-739.0
aF-739.0
aF-691.2354326933745
aF-631.5610151716286
aF-631.5610151716285
aF-631.5461059392871
aF-620.5520790897937
aF-614.6572569526405
aF-608.3271022799378
aF-589.310464470046
aF-573.4145518731023
aF-565.3681452607096
aF-563.0869974272446
aF-547.043992445535
aF-529.389134414108
aF-517.3648643130091
aF-514.0627799537709
aF-491.5321206636078
aF-431.63498293129953
aF-422.6317552478036
aF-418.4166229067868
aF-414.7817732391866
aF-391.6209145676617
aF-367.4536318699794
aF-350.65335267296217
aF-347.5336118922754
aF-333.197526089531
aF-331.3503668838863
aF-329.91576606006146
aF-329.05191216775194
aF-297.0992397025692
aF-288.63090560939116
aF-285.80711299914066
aF-282.49553670683366
aF-272.162300335132
aF-267.9928631425961
aF-255.1302551651838
aF-254.2165935342803
aF-247.9587258223307
aF-244.26221939508346
aF-237.13519737074722
aF-232.52767489087773
aF-222.351870422196
aF-214.2175456196304
aF-208.62433902159043
aF-201.6059451788353
aF-196.7738365526438
aF-192.0046974295338
aF-189.52930403007673
aF-188.80476058928127
aF-183.98755033829735
aF-181.6208225286365
aF-173.7081100598822
aF-169.90287599102754
aF-169.2672171576557
aF-168.21381997245464
aF-157.66182433090242
aF-156.29823818894053
aF-135.54311088590444
aF-133.30694175763514
aF-131.08298920137693
aF-129.0095849767158
aF-128.40547680174603
aF-128.04137279184863
aF-126.14813107917784
aF-125.87379865670115
aF-122.27931527585532
aF-119.06412335322575
aF-118.42511640617711
aF-117.62286368572805
aF-117.39025116095809
aF-117.31165889512856
aF-117.00852248264235
aF-116.88199980373807
aF-116.75079866856223
aF-116.5538716598394
aF-116.4366134109915
aF-116.15290441620192
aF-115.40542191111834
aF-111.46347186799909
aF-111.15178212954415
aF-111.15178212954415
aF-110.92138175605673
aF-110.82110606660513
aF-110.40902705277146
aF-110.35783065283765
aF-110.34520407660553
aF-110.2695759079896
aF-110.25912271478302
aF-110.25912271478302
aF-110.17112062943359
aF-110.16038778827604
aF-110.10794392034266
aF-110.0812690122479
aF-110.04272478160522
aF-110.0424064419711
aF-109.76866453223363
aF-109.73022037097384
aF-109.71679976078319
aF-109.70674286289844
aF-109.64719326903486
aF-109.52749288895093
aF-109.52492944738935
aF-109.45859208690034
aF-109.4442242166674
aF-109.44179238969608
aF-109.36994961449824
aF-109.32198461082582
aF-109.30789655700038
aF-109.26575794457811
aF-109.26190554504919
aF-109.22996715111682
aF-109.22919643542672
aF-109.20472729933303
aF-109.2047272993331
aF-109.20327533519529
aF-109.1989209823145
aF-109.1989209823145
aF-109.19864574745576
aF-109.09159653700662
aF-109.06968547412909
aF-109.04331215500514
aF-108.8249619096092
aF-108.80867575848191
aF-108.80867575848191
aF-108.80867575848191
aF-108.80815958224646
aF-108.80242037490824
aF-108.74952268612297
aF-108.72635966117052
aF-108.71770728784574
aF-108.71248639581444
aF-108.70954241899243
aF-108.70954241899243
aF-108.69878506205394
aF-108.68931497356628
aF-108.68456524463845
aF-108.68456524463845
aF-108.68381273969594
aF-108.6802803449861
aF-108.68014754740791
aF-108.68014754740784
aF-108.68014754740784
aF-108.67857958957796
aF-108.6770502467567
aF-108.6770502467567
aF-108.67595532867487
aF-108.67457578936705
aF-108.67449989775902
aF-108.67428452076189
aF-108.67180460434652
aF-108.66870119759801
aF-108.66870119759801
aF-108.6658121185241
aF-108.66410188713631
aF-108.66404579308265
aF-108.66275054365289
aF-108.66088641237518
aF-108.66068022102014
aF-108.66029841977343
aF-108.66021469871045
aF-108.65909615373592
aF-108.65839459855637
aF-108.65822854221057
aF-108.65709411082254
aF-108.65709411082254
aF-108.65655374052128
aF-108.65655374052128
aF-108.65655374052128
aF-108.65655374052128
aF-108.65655374052128
aF-108.65655374052128
aF-108.65655374052128
aF-108.65655374052128
aF-108.65655374052128
aF-108.65655374052128
aF-108.65655374052128
aF-108.65655374052128
aF-108.65655374052128
aF-108.65655374052128
aF-108.65655374052128
aF-108.65655374052128
aF-108.65655374052128
aF-108.65655374052128
aF-108.65655374052128
aF-108.65655374052128
aF-108.65655374052128
aF-108.65655374052128
aF-108.65655374052128
aF-108.65655374052128
aa(lp37
F-1974.0
aF-1974.0
aF-1974.0
aF-1795.0
aF-1795.0
aF-1795.0
aF-1634.202582527957
aF-1106.4216743598452
aF-1104.0
aF-1104.0
aF-966.2805148726635
aF-898.6162282331932
aF-834.7762177242472
aF-833.7718052472379
aF-812.956966054364
aF-798.0526793115461
aF-760.206554518201
aF-746.4748602955037
aF-724.5809435895078
aF-707.0932598689787
aF-706.8895134943817
aF-706.5691245039371
aF-692.2402303178789
aF-682.7304261353675
aF-672.5578300397436
aF-659.6784950135068
aF-638.3278993317608
aF-624.261482662763
aF-617.4720084080192
aF-614.8417185538361
aF-604.645025879773
aF-591.1615757964425
aF-590.964091470217
aF-590.4860661063004
aF-563.8468828122838
aF-558.9658888976484
aF-552.6347388735688
aF-541.799572744614
aF-533.8833992320663
aF-529.7516947621255
aF-524.8221369078608
aF-520.8598139415523
aF-498.354518162244
aF-494.2437704432114
aF-492.23924549874334
aF-488.2618303483246
aF-484.9953203754638
aF-473.649990053675
aF-466.1161716059267
aF-458.13449246434647
aF-455.91566004185506
aF-451.23582768939747
aF-449.8106356088304
aF-447.34433293261696
aF-445.7511047591816
aF-443.98692024205695
aF-442.4060804931924
aF-433.95103271559003
aF-430.6136540195773
aF-422.00933307988606
aF-420.59388893976165
aF-419.45256286588676
aF-417.2539201252345
aF-416.7937617892428
aF-416.07481315855233
aF-415.9150973045521
aF-415.48100761316715
aF-415.1675750768523
aF-415.0708813881038
aF-415.0196734676928
aF-414.7433205669076
aF-413.14968682253675
aF-412.7018329298381
aF-412.57344551103
aF-412.52597622814477
aF-412.2355238757786
aF-411.6309207001836
aF-411.33913899815906
aF-411.052073279187
aF-410.95179370076755
aF-410.77545793453106
aF-410.65465741917353
aF-410.4759501249518
aF-410.4119655276474
aF-410.40310872467654
aF-410.3542590551035
aF-410.3449275700552
aF-410.2811681689804
aF-410.2461918453331
aF-410.1725605131187
aF-410.0648179193113
aF-410.01563903382544
aF-409.5919888304652
aF-409.50920396270726
aF-409.49361061915437
aF-409.4590092634491
aF-409.3176884468392
aF-408.9087734860648
aF-408.90401043817866
aF-408.81081678058126
aF-408.8103763208569
aF-408.78131286455994
aF-408.7788569007768
aF-408.7284878390874
aF-408.7259480258624
aF-408.71967689833855
aF-408.6006114450454
aF-408.51155388067275
aF-408.5115538806727
aF-408.44520425744196
aF-408.4452042574416
aF-408.4205168452615
aF-408.2050513502737
aF-408.13337799307357
aF-407.8778572495871
aF-407.86391028109
aF-407.66977294350744
aF-407.645102731618
aF-407.62622352978474
aF-407.59699213759814
aF-407.57696077952266
aF-407.5769607795221
aF-407.5769607795222
aF-407.5694955936714
aF-407.5683364986935
aF-407.56833649869384
aF-407.5612012485699
aF-407.5287123259946
aF-407.52871232599506
aF-407.52871232599506
aF-407.52545875237405
aF-407.52545875237405
aF-407.5179577169852
aF-407.51041235327097
aF-407.51041235327176
aF-407.51041235327097
aF-407.50643796996644
aF-407.5015346440312
aF-407.50086556295975
aF-407.5008655629597
aF-407.4979226921192
aF-407.4921082490757
aF-407.4921082490759
aF-407.49210824907635
aF-407.49210824907624
aF-407.4905395618376
aF-407.4905395618395
aF-407.4905395618395
aF-407.4890816160956
aF-407.488944547834
aF-407.48894454783573
aF-407.4767440623395
aF-407.47668482301293
aF-407.47668482301276
aF-407.47668482301276
aF-407.47668482301276
aF-407.4766609098341
aF-407.47666090983404
aF-407.47666090983404
aF-407.47664017073134
aF-407.4766087635981
aF-407.47660876359646
aF-407.4765504567835
aF-407.4765504567852
aF-407.4765504567836
aF-407.4765215525446
aF-407.47639701319486
aF-407.47627975853226
aF-407.4762652197579
aF-407.4762652197579
aF-407.4762479807057
aF-407.4762358855737
aF-407.47623588557406
aF-407.47623588557417
aF-407.4761666216772
aF-407.4761504245192
aF-407.47615042452014
aF-407.4761440100267
aF-407.476144010026
aF-407.47610214727575
aF-407.4760708686974
aF-407.476067826098
aF-407.4760553775671
aF-407.47602983626473
aF-407.47602983626473
aF-407.4760286529996
aF-407.4760286529996
aF-407.47599852050695
aF-407.47599852050695
aF-407.47599852050695
aF-407.47599852050695
aF-407.47599852050695
aF-407.47599852050695
aF-407.47599852050695
aF-407.47599852050695
aF-407.47599852050695
aF-407.47599852050695
aF-407.47599852050695
aF-407.47599852050695
aF-407.47599852050695
aF-407.47599852050695
aF-407.47599852050695
aF-407.47599852050695
aF-407.47599852050695
aF-407.47599852050695
aa(lp38
F-1895.0
aF-1895.0
aF-1895.0
aF-1784.0
aF-1784.0
aF-1784.0
aF-1673.6616314406162
aF-1365.0
aF-1365.0
aF-1365.0
aF-1339.0
aF-1339.0
aF-1339.0
aF-1287.4593374736749
aF-999.3754740330108
aF-876.5524066434205
aF-848.3524076330336
aF-834.039426477165
aF-825.1511065110273
aF-817.0977081916824
aF-811.6396000531292
aF-803.8348082050262
aF-782.7580376745399
aF-764.4766276128081
aF-755.0610279863903
aF-745.614160353999
aF-732.356702049604
aF-712.8728970673122
aF-698.4977661055258
aF-673.0176771903863
aF-660.9075459187499
aF-640.4505850677378
aF-636.0439358372039
aF-604.9925515123351
aF-598.8999581273781
aF-585.6617148732571
aF-579.2223448885605
aF-571.6560527922142
aF-567.6899474865626
aF-564.2441846160569
aF-543.6157753837077
aF-537.7283026539852
aF-535.6142148983064
aF-534.679183161586
aF-521.1234473502155
aF-506.4285092362786
aF-488.2801683202907
aF-465.59697304326977
aF-458.2824204328468
aF-450.36007997444574
aF-442.4708813962988
aF-438.2510289670376
aF-435.0957202121056
aF-432.66971604505846
aF-430.63553843404446
aF-427.29282212578016
aF-422.81530907027434
aF-417.5203708498903
aF-413.5346093649551
aF-411.80579875171424
aF-410.93714332276335
aF-409.2725353365941
aF-408.27223909714115
aF-405.5703763973882
aF-402.22952942406835
aF-385.5606406892372
aF-376.7756985769158
aF-375.3200353232887
aF-372.5316199250859
aF-365.21223142603264
aF-363.51326209557305
aF-359.6809319366499
aF-358.32056473427735
aF-355.5126110859005
aF-353.6137093195979
aF-346.25391134959085
aF-340.9219640756025
aF-339.17775116496375
aF-336.55932065518715
aF-333.62924843936275
aF-332.7472138601569
aF-330.92419176133063
aF-328.54395865715605
aF-326.3391153959171
aF-324.16832974290776
aF-323.1398431323309
aF-321.7544782164498
aF-321.24581648376096
aF-320.239702400688
aF-319.28062906034756
aF-315.99998037020356
aF-310.858158721331
aF-310.01352011130547
aF-300.6177540129154
aF-297.5674369304379
aF-296.5819053231329
aF-294.0236440302026
aF-286.49892982436046
aF-284.7006658924532
aF-284.05501045974273
aF-280.9989955008283
aF-274.48761196857254
aF-270.42477690012817
aF-269.2566060918109
aF-266.7796428815045
aF-265.88801033796744
aF-265.5865087946144
aF-264.9597878821618
aF-264.4170333965504
aF-264.257453730155
aF-264.21055305314223
aF-263.90431248881
aF-263.2337601967782
aF-263.2306208601271
aF-262.77007248894273
aF-262.41944417112296
aF-262.2197503777827
aF-262.0933740048678
aF-261.0962514660113
aF-260.7032543240548
aF-259.69046399653996
aF-259.4780556279391
aF-259.280036319678
aF-258.8090608020573
aF-257.4182490741947
aF-257.3096157729837
aF-256.0801428081523
aF-255.26815787845018
aF-254.21411849157786
aF-253.44308074962274
aF-253.1622506992226
aF-252.65953970448433
aF-251.6279984717325
aF-251.22481594399738
aF-250.47441200973387
aF-250.0272799596919
aF-249.8587684167393
aF-249.5278960628629
aF-249.23480723094056
aF-248.54042746724534
aF-247.4826073975453
aF-245.93610907065934
aF-244.41846207165432
aF-243.28502469840032
aF-242.41376377534755
aF-241.98776622795535
aF-241.6302678431598
aF-240.54753441082968
aF-240.33759278974995
aF-238.62407113348144
aF-236.99572881572922
aF-236.61677768119176
aF-236.52620166297228
aF-236.2000127520367
aF-235.92821189466846
aF-235.26007647753477
aF-234.87584986422397
aF-234.7369534349921
aF-234.45395550610726
aF-234.19354494248444
aF-233.68296817769462
aF-233.1913418150589
aF-233.06556577508366
aF-232.96892604194156
aF-232.7574809009463
aF-232.58601898413804
aF-231.77588226147319
aF-230.27510233516992
aF-230.10693459133324
aF-229.6869443871814
aF-229.4582486807994
aF-228.84445806479013
aF-228.21278724497412
aF-228.13783496265404
aF-228.01083649375875
aF-228.01083649375875
aF-227.40689427250095
aF-227.03835940322733
aF-226.64138973740287
aF-225.58460995672445
aF-224.70014992912965
aF-224.03968169664444
aF-223.1648482267879
aF-222.83759266731963
aF-222.0319066275814
aF-221.28331520952813
aF-221.10600481631798
aF-220.15454614304488
aF-219.57539642228065
aF-219.42097128172145
aF-219.2914622330584
aF-219.14105281796597
aF-219.049916304102
aF-218.52722342388168
aF-218.21718826432672
aF-217.87695683453427
aF-217.2304780314969
aF-217.2304780314969
aF-217.18031021233057
aF-217.08607632968835
aF-216.663876582587
aF-216.36824826051642
aF-216.3446711922382
aF-216.25608288139452
aF-215.9380578864024
aF-215.67445687869068
aF-215.41730101236612
aF-215.0647591906233
aF-214.94574398847772
aF-214.79283306086066
aF-214.70279118066503
aF-214.36849965951095
aF-214.15426901825558
aF-214.15426901825558
aF-214.1010677442704
aF-213.34730591144685
aF-212.80100499485857
aF-211.55700717781218
aF-211.2825688922342
aF-210.81352973918374
aF-210.81352973918374
aF-210.71220745124728
aF-210.68657227167373
aF-210.68657227167373
aF-210.64034006859447
aF-210.5868776837878
aF-209.17862810759243
aF-209.12169596989153
aF-209.06671338230808
aF-208.66521823118075
aF-208.46539413224264
aF-208.4470186201742
aF-208.44673294282205
aF-208.2495992713039
aF-208.2495992713039
aF-208.2495992713039
aF-208.2223551644745
aF-208.0605537092925
aF-207.8307914595552
aF-207.71444069471198
aF-207.69766655757786
aF-207.64116303168598
aF-207.61230976610824
aF-207.57204269089647
aF-207.50190594436648
aF-207.13220438446612
aF-207.01546030849252
aF-206.98823008617958
aF-206.9806442317764
aF-206.96457569802095
aF-206.92772460116183
aF-206.9146847416168
aF-206.9146847416156
aF-206.9146847416168
aF-206.89998285089808
aF-206.89977526824322
aF-206.87802092794703
aF-206.87802092794703
aF-206.87457368413564
aF-206.87457368413564
aF-206.85665096023848
aF-206.83752241683774
aF-206.8120836262939
aF-206.76441571833698
aF-206.59249339418284
aF-206.56169796517696
aF-206.50392061874018
aF-206.41263262561299
aF-206.30189564548434
aF-206.28206875097948
aF-206.24970088990213
aF-206.24970088990213
aF-206.24970088990213
aF-206.24970088990213
aF-206.22578825653363
aF-206.22264650595892
aF-206.21770985076398
aF-206.21698326493004
aF-206.19789791924975
aF-206.19789791924975
aF-206.1945537089812
aF-206.1825839430673
aF-206.18207630592184
aF-206.03948470156368
aF-206.03062246448218
aF-206.01747168298644
aF-206.00609443706196
aF-206.0047392140338
aF-205.8984706286503
aF-205.89447464283197
aF-205.8822374514733
aF-205.874786327277
aF-205.86024600644961
aF-205.85055492436308
aF-205.84516176574033
aF-205.81501246695484
aF-205.81314993880352
aF-205.6667193784883
aF-205.50265897652858
aF-205.39650910076995
aF-205.39650910076995
aF-205.1679145127838
aF-205.1592733790855
aF-205.1310670649762
aF-205.10027374497412
aF-205.06683941430373
aF-205.05438650482066
aF-205.0373831813384
aF-205.0353800910077
aF-205.0339091158017
aF-205.02819327030852
aF-205.0096724642816
aF-204.94808666469922
aF-204.90440034603068
aF-204.8998482386564
aF-204.77121574201837
aF-204.66721384296358
aF-204.6606485953039
aF-204.42895159521868
aF-204.371674505116
aF-204.36337300990556
aF-204.3633257159603
aF-204.3096327964992
aF-204.30929647361629
aF-204.26974361725937
aF-204.2697436172594
aF-204.26574550275924
aF-204.26574550275924
aF-204.2566733749108
aF-204.2168094898944
aF-204.20171035795428
aF-204.15934123343493
aF-204.15934123343493
aF-204.14582676210605
aF-204.14548447553838
aF-204.14398080432682
aF-204.14305159792676
aF-204.14305159792676
aF-204.1005792370483
aF-204.0913469561017
aF-204.08440135278877
aF-204.07397399314212
aF-204.0638527951704
aF-204.06037157546376
aF-203.99694598355586
aF-203.9816820586732
aF-203.9816820586732
aF-203.94365077160208
aF-203.94365077160208
aF-203.94365077160208
aF-203.92583195533172
aF-203.8887259742921
aF-203.8887259742921
aF-203.88871470484867
aF-203.88869656277646
aF-203.8845951536843
aF-203.80823311961086
aF-203.80823311961086
aF-203.80823311961086
aF-203.80475373139507
aF-203.80475373139507
aF-203.80475373139507
aF-203.80475373139507
aF-203.80475373139507
aF-203.80475373139507
aF-203.80475373139507
aF-203.80454594847853
aF-203.80454594847853
aF-203.80372513619858
aF-203.7967681009855
aF-203.77647735381552
aF-203.76409657094845
aF-203.75649571050022
aF-203.75649571050022
aF-203.68682631335005
aF-203.68682631335005
aF-203.68682631335005
aF-203.68682631335005
aF-203.6159760603161
aF-203.59874744450465
aF-203.57199523025994
aF-203.5589334626397
aF-203.5589334626397
aF-203.5589334626397
aF-203.41384437994378
aF-203.41384437994336
aF-203.41384437994336
aF-203.33281982302768
aF-203.3223475288452
aF-203.3223475288452
aF-203.3058032529858
aF-203.30080842897448
aF-203.28561270137374
aF-203.2834033692392
aF-203.2619118080124
aF-203.2619118080124
aF-203.2619118080124
aF-203.2619118080124
aF-203.2619118080124
aF-203.2608967511569
aF-203.2608967511569
aF-203.26089675115733
aF-203.2608967511569
aF-203.2608967511568
aF-203.2608967511569
aF-203.25441565476993
aF-203.25441565476993
aF-203.25441565476993
aF-203.24235261523148
aF-203.24235261523148
aF-203.24074266480386
aF-203.24074266480386
aF-203.21829679528562
aF-203.21829679528562
aF-203.21829679528543
aF-203.21829679528543
aF-203.1973131304849
aF-203.19731313048345
aF-203.1914649331406
aF-203.1912396698155
aF-203.1912396698155
aF-203.1912396698155
aF-203.18636249344854
aF-203.181760849434
aF-203.181760849434
aF-203.13633697340987
aF-203.13633697340987
aF-203.13633697340984
aF-203.13633697340984
aF-203.1320908356719
aF-203.1320908356719
aF-203.10732322168616
aF-203.10732322168616
aF-203.0915581684457
aF-203.09155816844552
aF-203.09155816844552
aF-203.08640661325043
aF-203.08640661325043
aF-203.08245652893103
aF-203.07793246935702
aF-203.07793246935702
aF-203.0779324693569
aF-203.07793246935702
aF-203.07520836334837
aF-203.07520836334837
aF-203.07520836334837
aF-202.87767161226193
aF-202.87767161226193
aF-202.87767161226193
aF-202.87767161226193
aF-202.87767161226193
aF-202.8682037969487
aF-202.83656155832432
aF-202.83656155832432
aF-202.83656155832432
aF-202.83656155832432
aF-202.83656155832412
aF-202.83656155832426
aF-202.83656155832432
aF-202.80288655819675
aF-202.7385021743837
aF-202.7283243223873
aF-202.66255843226946
aF-202.6615579920507
aF-202.64949361472338
aF-202.64949361472338
aF-202.64947340393718
aF-202.64947340393718
aF-202.64052756442737
aF-202.64052756442737
aF-202.59179612492426
aF-202.59179612492426
aF-202.59179612492426
aF-202.59179612492426
aF-202.59179612492426
aF-202.59179612492426
aF-202.59179612492426
aF-202.57746583745586
aF-202.57746583745586
aF-202.57746583745586
aF-202.57746583745586
aF-202.57746583745586
aF-202.57009823664953
aF-202.57009823664953
aF-202.57009823664953
aF-202.55211577770118
aF-202.48529582843008
aF-202.48529582842917
aF-202.48529582842912
aF-202.48529582842917
aF-202.48529582842917
aF-202.4831945315679
aF-202.48231683862863
aF-202.4818244651134
aF-202.4818244651134
aF-202.4818244651134
aF-202.4818244651134
aF-202.48069907081782
aF-202.48069907081793
aF-202.47674946450084
aF-202.47287641598322
aF-202.47287641598373
aF-202.4679668242541
aF-202.4679668242541
aF-202.4641393690653
aF-202.4641393690653
aF-202.4641393690653
aF-202.4641393690653
aF-202.4641393690653
aF-202.4641393690653
aF-202.4641393690653
aF-202.4641393690653
aF-202.4641393690653
aF-202.45928079219948
aF-202.44596952171233
aF-202.44596952171233
aF-202.42651461050932
aF-202.42419928345038
aF-202.42419928345038
aF-202.42419928345038
aF-202.42419928345038
aF-202.42419928345038
aF-202.4203345023973
aF-202.4203345023973
aF-202.4203345023973
aF-202.39018517150458
aF-202.3533939840278
aF-202.3533939840278
aF-202.3533939840278
aF-202.3533939840278
aF-202.32273325655143
aF-202.32273325655143
aF-202.32273325655143
aF-202.32253424135646
aF-202.32253424135646
aF-202.26675785617823
aF-202.26675785617803
aF-202.26417398347508
aF-202.26307864988308
aF-202.26307864988289
aF-202.26307864988289
aF-202.24775247113084
aF-202.20910037516197
aF-202.2050504230671
aF-202.2050504230671
aF-202.2050504230671
aF-202.2050504230671
aF-202.2050504230671
aF-202.2050504230671
aF-202.2050504230671
aF-202.2034035402386
aF-202.2034035402386
aF-202.2034035402386
aF-202.2034035402386
aF-202.2034035402386
aF-202.19316771070035
aF-202.19316771070035
aF-202.19316771070035
aF-202.18374535890425
aF-202.18374535890425
aF-202.18374535890425
aF-202.18374535890425
aF-202.1837453589043
aF-202.1837453589043
aF-202.18374535890425
aF-202.17922702517671
aF-202.17922702517671
aF-202.17664311390905
aF-202.17664311390902
aF-202.17664311390905
aF-202.1766431139085
aF-202.17664311390854
aF-202.17664311390905
aF-202.1665532397955
aF-202.1665532397955
aF-202.1665532397955
aF-202.1665532397955
aF-202.1665532397955
aF-202.1665532397955
aF-202.16524386000467
aF-202.16524386000467
aF-202.16524386000467
aF-202.16524386000467
aF-202.16524386000467
aF-202.16524386000467
aF-202.16524386000467
aF-202.1600956121929
aF-202.16009561219298
aF-202.1600956121926
aF-202.1600956121928
aF-202.1600956121932
aF-202.1600956121927
aF-202.1600956121927
aF-202.1600956121927
aF-202.15990998522585
aF-202.15990998522585
aF-202.1282347060289
aF-202.1282347060289
aF-202.1282347060289
aF-202.1282347060289
aF-202.12823470602856
aF-202.1282347060289
aF-202.12664426483948
aF-202.12664426483886
aF-202.1266442648394
aF-202.12664426483886
aF-202.12664426483903
aF-202.1265479273376
aF-202.12622963281456
aF-202.12622963281456
aF-202.1262296328148
aF-202.12622963281456
aF-202.12622963281456
aF-202.12622963281456
aF-202.125664643974
aF-202.12566464397375
aF-202.12197271761397
aF-202.12197271761397
aF-202.12197271761394
aF-202.12197271761386
aF-202.12197271761397
aF-202.12197271761397
aF-202.12197271761397
aF-202.12197271761397
aF-202.12197271761397
aF-202.12197271761397
aF-202.12197271761406
aF-202.12197271761363
aF-202.12197271761397
aF-202.12197271761397
aF-202.12197271761397
aF-202.121646788409
aF-202.1216467884094
aF-202.1216467884096
aF-202.1216467884096
aF-202.0984823215045
aF-202.0984823215045
aF-202.09848232150424
aF-202.0984823215045
aF-202.0984823215045
aF-202.0984823215045
aF-202.0984823215048
aF-202.09319251617242
aF-202.09319251617262
aF-202.0931925161725
aF-202.09319251617242
aF-202.09319251617242
aF-202.0931925161726
aF-202.0931925161724
aF-202.0931925161718
aF-202.09319251617242
aF-202.09319251617225
aF-202.0931925161725
aF-202.09319251617242
aF-202.0931925161719
aF-202.093192516172
aF-202.09319251617245
aF-202.09319251617242
aF-202.08874462036545
aF-202.08874462036556
aF-202.08874462036545
aF-202.08645194037516
aF-202.08645194037524
aF-202.08645194037516
aF-202.08645194037516
aF-202.08645194037516
aF-202.08645194037516
aF-202.08621471099
aF-202.0744068059978
aF-202.0744068059978
aF-202.0744068059978
aF-202.0744068059978
aF-202.0744068059978
aF-202.07440680599774
aF-202.0744068059978
aF-202.0744068059978
aF-202.0744068059978
aF-202.074406805998
aF-202.0608276112787
aF-202.0608276112787
aF-202.0608276112787
aF-202.02855822197583
aF-201.9964036659638
aF-201.9964036659638
aF-201.99640366596387
aF-201.9964036659638
aF-201.9964036659638
aF-201.9964036659638
aF-201.9964036659638
aF-201.9964036659638
aF-201.9964036659638
aF-201.96765177430984
aF-201.96765177430984
aF-201.96765177430984
aF-201.96765177430984
aF-201.9676517743098
aF-201.96765177430976
aF-201.96246014490197
aF-201.96246014490197
aF-201.9588079302696
aF-201.9588079302696
aF-201.95880793026961
aF-201.95880793026964
aF-201.95880793026942
aF-201.95880793026942
aF-201.95880793026942
aF-201.95880793026942
aF-201.95880793026942
aF-201.95880793026942
aF-201.95880793026947
aF-201.95880793026942
aF-201.95880793026942
aF-201.95880793026942
aF-201.95870287631445
aF-201.95870287631445
aF-201.95870287631473
aF-201.95870287631453
aF-201.95870287631453
aF-201.95870287631445
aF-201.95870287631445
aF-201.95870287631445
aF-201.95870287631476
aF-201.95870287631462
aF-201.95870287631476
aF-201.95870287631445
aF-201.9587028763146
aF-201.9587028763146
aF-201.95870287631445
aF-201.95870287631445
aF-201.9587028763147
aF-201.95870287631473
aF-201.95870287631473
aF-201.95870287631487
aatp39
.